C51 COMPILER V9.60.0.0   OLED_GUI                                                          03/11/2022 13:49:23 PAGE 1   


C51 COMPILER V9.60.0.0, COMPILATION OF MODULE OLED_GUI
OBJECT MODULE PLACED IN .\build\Target 1\Library\src\OLED_GUI.o
COMPILER INVOKED BY: C:\Keil_v5\C51\BIN\C51.exe .\LIBRARY\SRC\OLED_GUI.C PRINT(.\build\Target 1\Library\src\OLED_GUI.lst
                    -) OMF2 TABS(4) CODE NOCOND SYMBOLS OPTIMIZE(8,SPEED) SMALL ROM(LARGE) INCDIR(.\..\..\..\..\..\Keil_v5\C51\INC\Atmel;.\Li
                    -brary\inc;.\..\..\..\..\..\Keil_v5\C51\INC) DEFINE(__UVISION_VERSION=526) OBJECT(.\build\Target 1\Library\src\OLED_GUI.o
                    -)

line level    source

   1          #include "OLED_GUI.h"
   2              
   3          unsigned int MenuFirst_Flag=1;
   4          unsigned int MenuFirst_Top_Flag=1;
   5          unsigned int OLED_Clean=0;
   6          unsigned int hour=0;
   7          unsigned int TrueMenu_Flag=1;
   8          
   9          void GUI_NumDisplay(uint x,uint y,uint num)
  10          {
  11   1          switch(num)
  12   1          {
  13   2              case 0 : OLED_DrawBMP(x,y,x+14,y+3,(unsigned char *)Num_0); break;
  14   2              case 1 : OLED_DrawBMP(x,y,x+14,y+3,(unsigned char *)Num_1); break;
  15   2              case 2 : OLED_DrawBMP(x,y,x+14,y+3,(unsigned char *)Num_2); break;
  16   2              case 3 : OLED_DrawBMP(x,y,x+14,y+3,(unsigned char *)Num_3); break;
  17   2              case 4 : OLED_DrawBMP(x,y,x+14,y+3,(unsigned char *)Num_4); break;
  18   2              case 5 : OLED_DrawBMP(x,y,x+14,y+3,(unsigned char *)Num_5); break;
  19   2              case 6 : OLED_DrawBMP(x,y,x+14,y+3,(unsigned char *)Num_6); break;
  20   2              case 7 : OLED_DrawBMP(x,y,x+14,y+3,(unsigned char *)Num_7); break;
  21   2              case 8 : OLED_DrawBMP(x,y,x+14,y+3,(unsigned char *)Num_8); break;
  22   2              case 9 : OLED_DrawBMP(x,y,x+14,y+3,(unsigned char *)Num_9); break;
  23   2              default: OLED_DrawBMP(x,y,x+14,y+3,(unsigned char *)Num_0); break;
  24   2          }
  25   1      }
  26          
  27          void GUI_Print()
  28          {
  29   1          if(gpsRxBuffer[1]=='B')
  30   1          {
  31   2          OLED_ShowChar(0,0,gpsRxBuffer[0]);
  32   2          OLED_ShowChar(10,0,gpsRxBuffer[1]);
  33   2          OLED_ShowChar(20,0,gpsRxBuffer[2]);
  34   2          OLED_ShowChar(30,0,gpsRxBuffer[3]);
  35   2          OLED_ShowChar(40,0,gpsRxBuffer[4]);
  36   2          OLED_ShowChar(50,0,gpsRxBuffer[5]);
  37   2          OLED_ShowChar(60,0,gpsRxBuffer[6]);
  38   2          OLED_ShowChar(70,0,gpsRxBuffer[7]);
  39   2          OLED_ShowChar(80,0,gpsRxBuffer[8]);
  40   2          }
  41   1          if((gpsRxBuffer[1]=='B')&&(gpsRxBuffer[5]=='V'))
  42   1          {
  43   2          OLED_ShowChar(0,2,gpsRxBuffer[0]);
  44   2          OLED_ShowChar(10,2,gpsRxBuffer[1]);
  45   2          OLED_ShowChar(20,2,gpsRxBuffer[2]);
  46   2          OLED_ShowChar(30,2,gpsRxBuffer[3]);
  47   2          OLED_ShowChar(40,2,gpsRxBuffer[4]);
  48   2          OLED_ShowChar(50,2,gpsRxBuffer[5]);
  49   2          OLED_ShowChar(60,2,gpsRxBuffer[6]);
  50   2          OLED_ShowChar(70,2,gpsRxBuffer[7]);
  51   2          OLED_ShowChar(80,2,gpsRxBuffer[8]);
  52   2          OLED_ShowChar(90,2,gpsRxBuffer[9]);
C51 COMPILER V9.60.0.0   OLED_GUI                                                          03/11/2022 13:49:23 PAGE 2   

  53   2          OLED_ShowChar(100,2,gpsRxBuffer[10]);
  54   2          OLED_ShowChar(110,2,gpsRxBuffer[11]);
  55   2          OLED_ShowChar(120,2,gpsRxBuffer[12]);
  56   2          }
  57   1          if((gpsRxBuffer[2]=='N')&&(gpsRxBuffer[5]=='C'))
  58   1          {
  59   2          OLED_ShowChar(0,4,gpsRxBuffer[0]);
  60   2          OLED_ShowChar(10,4,gpsRxBuffer[1]);
  61   2          OLED_ShowChar(20,4,gpsRxBuffer[2]);
  62   2          OLED_ShowChar(30,4,gpsRxBuffer[3]);
  63   2          OLED_ShowChar(40,4,gpsRxBuffer[4]);
  64   2          OLED_ShowChar(50,4,gpsRxBuffer[5]);
  65   2          OLED_ShowChar(60,4,gpsRxBuffer[7]);
  66   2          OLED_ShowChar(70,4,gpsRxBuffer[8]);
  67   2          OLED_ShowChar(80,4,gpsRxBuffer[9]);
  68   2          OLED_ShowChar(90,4,gpsRxBuffer[10]);
  69   2          OLED_ShowChar(100,4,gpsRxBuffer[11]);
  70   2          OLED_ShowChar(110,4,gpsRxBuffer[12]);
  71   2          }else
  72   1          {
  73   2              OLED_ShowString(0,6, "error :(");    
  74   2          }
  75   1      }
  76          void GUI_DisBMP280(void)
  77          {
  78   1          bmp280Convert();
  79   1          OLED_ShowString(0,-1, "BMP280:");
  80   1          OLED_ShowString(0,0, "Tem:");   
  81   1          //OLED_ShowChar(40,0,temperature);
  82   1          OLED_ShowNum(36,0,temperature/100,2,16);
  83   1          OLED_ShowString(52,0, ".");
  84   1          OLED_ShowNum(58,0,temperature%100,2,16);
  85   1          OLED_ShowString(78,0, "C");
  86   1          OLED_ShowString(0,1, "Hum:");
  87   1          OLED_ShowNum(40,1,humidity,4,16);
  88   1          OLED_ShowString(78,1, "%");
  89   1          OLED_ShowString(0,2, "AP:");
  90   1          OLED_ShowNum(40,2,pressure,10,16);
  91   1          //OLED_ShowString(78,2, "pa");
  92   1          OLED_ShowString(0,3, "Hi:");
  93   1          OLED_ShowNum(40,3,height,10,16);
  94   1          //OLED_ShowString(78,3, "m");
  95   1      }
  96          
  97          void GUI_DisGPS(void)
  98          {
  99   1          GPS_Handle();
 100   1          OLED_ShowString(0,0,"UTC:");
 101   1          OLED_ShowString(30,0,Save_Data.UTCTime);
 102   1          OLED_ShowString(0,1,"Lati&Longi:");
 103   1          OLED_ShowString(30,2,Save_Data.latitude);
 104   1          OLED_ShowString(100,2,Save_Data.N_S);
 105   1          OLED_ShowString(30,3,Save_Data.longitude);
 106   1              OLED_ShowString(100,3,Save_Data.E_W);
 107   1          
 108   1          Delay200ms();
 109   1          //GUI_Print();
 110   1      }
 111          
 112          void GUI_TimeDisplay()
 113          {
 114   1          uint x=7;
C51 COMPILER V9.60.0.0   OLED_GUI                                                          03/11/2022 13:49:23 PAGE 3   

 115   1          GPS_Handle();
 116   1          if(!OLED_Clean)
 117   1              {
 118   2                  OLED_Clear();
 119   2              }
 120   1          hour=(Save_Data.UTCTime[0]-'0')*10+(Save_Data.UTCTime[1]-'0')+8;
 121   1          if(hour>=24)
 122   1          {
 123   2              hour %= 24;
 124   2              }
 125   1          GUI_NumDisplay(x,2,hour/10);
 126   1          GUI_NumDisplay(x+16,2,hour%10);//x+16
 127   1          OLED_DrawBMP(x+33,3,x+35,5,(unsigned char *)Pixel_Dot);//x+33
 128   1          GUI_NumDisplay(x+39,2,Save_Data.UTCTime[2]-'0');//x+38
 129   1          GUI_NumDisplay(x+55,2,Save_Data.UTCTime[3]-'0');//x+54
 130   1          OLED_DrawBMP(x+73,3,x+75,5,(unsigned char *)Pixel_Dot);//x+71
 131   1          GUI_NumDisplay(x+79,2,Save_Data.UTCTime[4]-'0');//x+76
 132   1          GUI_NumDisplay(x+95,2,Save_Data.UTCTime[5]-'0');//x+92
 133   1          
 134   1          
 135   1      }
 136          
 137          void GUI_MenuFirst(void)  //首页一共四页
 138          {
 139   1          if(MenuFirst_Flag!=TrueMenu_Flag)  //全局刷新
 140   1          {
 141   2          OLED_Clear();
 142   2          }
 143   1              
 144   1          if(MenuFirst_Flag==2)
 145   1          {
 146   2              OLED_DrawBMP(0,0,128,8,(unsigned char *)BWeLyHqW);
 147   2              OLED_Clean=0;
 148   2          } else if(MenuFirst_Flag==1) {
 149   2              //OLED_DrawBMP(0,0,128,8,(unsigned char *)Time_Logo);
 150   2              GUI_TimeDisplay();
 151   2              OLED_Clean=1;
 152   2          } else if(MenuFirst_Flag==3) {
 153   2              GUI_DisBMP280();
 154   2              OLED_Clean=1;
 155   2          } else if(MenuFirst_Flag==4) {
 156   2              GUI_DisGPS();
 157   2              OLED_Clean=1;
 158   2          }
 159   1          TrueMenu_Flag=MenuFirst_Flag;
 160   1      }
 161          
 162          
 163          void GUI_MainFuction(void)  //开机后显示主界面
 164          {
 165   1              FirstMenukey();
 166   1              if(MenuFirst_Top_Flag==1)
 167   1              {
 168   2                  GUI_MenuFirst();  //首页
 169   2              }/*else if(MenuFirst_Top_Flag==2)
 170   1              {
 171   1                  GUI_MenuSecond();
 172   1              }*/
 173   1      }
C51 COMPILER V9.60.0.0   OLED_GUI                                                          03/11/2022 13:49:23 PAGE 4   

ASSEMBLY LISTING OF GENERATED OBJECT CODE


             ; FUNCTION L?0050 (BEGIN)
0000 FF                MOV     R7,A
0001 E4                CLR     A
0002 3500        R     ADDC    A,x
0004 FE                MOV     R6,A
0005         L?0051:
0005 E0                MOVX    A,@DPTR
0006 FD                MOV     R5,A
0007 33                RLC     A
0008 95E0              SUBB    A,ACC
000A FC                MOV     R4,A
000B ED                MOV     A,R5
000C 24D0              ADD     A,#0D0H
000E FB                MOV     R3,A
000F EC                MOV     A,R4
0010 34FF              ADDC    A,#0FFH
0012 FA                MOV     R2,A
0013         L?0052:
0013 7D02              MOV     R5,#02H
0015 7C00              MOV     R4,#00H
             ; FUNCTION _GUI_NumDisplay (BEGIN)
                                           ; SOURCE LINE # 9
0017 8E00        R     MOV     x,R6
0019 8F00        R     MOV     x+01H,R7
001B 8C00        R     MOV     y,R4
001D 8D00        R     MOV     y+01H,R5
;---- Variable 'num' assigned to Register 'R2/R3' ----
                                           ; SOURCE LINE # 10
                                           ; SOURCE LINE # 11
001F EA                MOV     A,R2
0020 6003              JZ      $ + 5H
0022 020000      R     LJMP    ?C0012
0025 EB                MOV     A,R3
0026 B40A00            CJNE    A,#0AH,?C0035
0029         ?C0035:
0029 4003              JC      $ + 5H
002B 020000      R     LJMP    ?C0012
002E 900000      R     MOV     DPTR,#?C0036
0031 F8                MOV     R0,A
0032 28                ADD     A,R0
0033 28                ADD     A,R0
0034 73                JMP     @A+DPTR
0035         ?C0036:
0035 020000      R     LJMP    ?C0002
0038 020000      R     LJMP    ?C0003
003B 020000      R     LJMP    ?C0004
003E 020000      R     LJMP    ?C0005
0041 020000      R     LJMP    ?C0006
0044 020000      R     LJMP    ?C0007
0047 020000      R     LJMP    ?C0008
004A 020000      R     LJMP    ?C0009
004D 020000      R     LJMP    ?C0010
0050 020000      R     LJMP    ?C0011
                                           ; SOURCE LINE # 12
                                           ; SOURCE LINE # 13
0053         ?C0002:
0053 020000      R     LJMP    ?C0038
                                           ; SOURCE LINE # 14
0056         ?C0003:
C51 COMPILER V9.60.0.0   OLED_GUI                                                          03/11/2022 13:49:23 PAGE 5   

0056 AF00        R     MOV     R7,x+01H
0058 AD00        R     MOV     R5,y+01H
005A EF                MOV     A,R7
005B 240E              ADD     A,#0EH
005D FB                MOV     R3,A
005E ED                MOV     A,R5
005F 2403              ADD     A,#03H
0061 F500        E     MOV     ?_OLED_DrawBMP?BYTE+03H,A
0063 7500FF      E     MOV     ?_OLED_DrawBMP?BYTE+04H,#0FFH
0066 750000      E     MOV     ?_OLED_DrawBMP?BYTE+05H,#HIGH Num_1
0069 750000      E     MOV     ?_OLED_DrawBMP?BYTE+06H,#LOW Num_1
006C 020000      R     LJMP    ?C0047
                                           ; SOURCE LINE # 15
006F         ?C0004:
006F AF00        R     MOV     R7,x+01H
0071 AD00        R     MOV     R5,y+01H
0073 EF                MOV     A,R7
0074 240E              ADD     A,#0EH
0076 FB                MOV     R3,A
0077 ED                MOV     A,R5
0078 2403              ADD     A,#03H
007A F500        E     MOV     ?_OLED_DrawBMP?BYTE+03H,A
007C 7500FF      E     MOV     ?_OLED_DrawBMP?BYTE+04H,#0FFH
007F 750000      E     MOV     ?_OLED_DrawBMP?BYTE+05H,#HIGH Num_2
0082 750000      E     MOV     ?_OLED_DrawBMP?BYTE+06H,#LOW Num_2
0085         ?C0039:
0085 020000      R     LJMP    ?C0047
                                           ; SOURCE LINE # 16
0088         ?C0005:
0088 AF00        R     MOV     R7,x+01H
008A AD00        R     MOV     R5,y+01H
008C EF                MOV     A,R7
008D 240E              ADD     A,#0EH
008F FB                MOV     R3,A
0090 ED                MOV     A,R5
0091 2403              ADD     A,#03H
0093 F500        E     MOV     ?_OLED_DrawBMP?BYTE+03H,A
0095 7500FF      E     MOV     ?_OLED_DrawBMP?BYTE+04H,#0FFH
0098 750000      E     MOV     ?_OLED_DrawBMP?BYTE+05H,#HIGH Num_3
009B 750000      E     MOV     ?_OLED_DrawBMP?BYTE+06H,#LOW Num_3
009E         ?C0040:
009E 020000      R     LJMP    ?C0047
                                           ; SOURCE LINE # 17
00A1         ?C0006:
00A1 AF00        R     MOV     R7,x+01H
00A3 AD00        R     MOV     R5,y+01H
00A5 EF                MOV     A,R7
00A6 240E              ADD     A,#0EH
00A8 FB                MOV     R3,A
00A9 ED                MOV     A,R5
00AA 2403              ADD     A,#03H
00AC F500        E     MOV     ?_OLED_DrawBMP?BYTE+03H,A
00AE 7500FF      E     MOV     ?_OLED_DrawBMP?BYTE+04H,#0FFH
00B1 750000      E     MOV     ?_OLED_DrawBMP?BYTE+05H,#HIGH Num_4
00B4 750000      E     MOV     ?_OLED_DrawBMP?BYTE+06H,#LOW Num_4
00B7         ?C0041:
00B7 020000      R     LJMP    ?C0047
                                           ; SOURCE LINE # 18
00BA         ?C0007:
00BA AF00        R     MOV     R7,x+01H
00BC AD00        R     MOV     R5,y+01H
00BE EF                MOV     A,R7
C51 COMPILER V9.60.0.0   OLED_GUI                                                          03/11/2022 13:49:23 PAGE 6   

00BF 240E              ADD     A,#0EH
00C1 FB                MOV     R3,A
00C2 ED                MOV     A,R5
00C3 2403              ADD     A,#03H
00C5 F500        E     MOV     ?_OLED_DrawBMP?BYTE+03H,A
00C7 7500FF      E     MOV     ?_OLED_DrawBMP?BYTE+04H,#0FFH
00CA 750000      E     MOV     ?_OLED_DrawBMP?BYTE+05H,#HIGH Num_5
00CD 750000      E     MOV     ?_OLED_DrawBMP?BYTE+06H,#LOW Num_5
00D0         ?C0042:
00D0 8076              SJMP    ?C0047
                                           ; SOURCE LINE # 19
00D2         ?C0008:
00D2 AF00        R     MOV     R7,x+01H
00D4 AD00        R     MOV     R5,y+01H
00D6 EF                MOV     A,R7
00D7 240E              ADD     A,#0EH
00D9 FB                MOV     R3,A
00DA ED                MOV     A,R5
00DB 2403              ADD     A,#03H
00DD F500        E     MOV     ?_OLED_DrawBMP?BYTE+03H,A
00DF 7500FF      E     MOV     ?_OLED_DrawBMP?BYTE+04H,#0FFH
00E2 750000      E     MOV     ?_OLED_DrawBMP?BYTE+05H,#HIGH Num_6
00E5 750000      E     MOV     ?_OLED_DrawBMP?BYTE+06H,#LOW Num_6
00E8         ?C0043:
00E8 805E              SJMP    ?C0047
                                           ; SOURCE LINE # 20
00EA         ?C0009:
00EA AF00        R     MOV     R7,x+01H
00EC AD00        R     MOV     R5,y+01H
00EE EF                MOV     A,R7
00EF 240E              ADD     A,#0EH
00F1 FB                MOV     R3,A
00F2 ED                MOV     A,R5
00F3 2403              ADD     A,#03H
00F5 F500        E     MOV     ?_OLED_DrawBMP?BYTE+03H,A
00F7 7500FF      E     MOV     ?_OLED_DrawBMP?BYTE+04H,#0FFH
00FA 750000      E     MOV     ?_OLED_DrawBMP?BYTE+05H,#HIGH Num_7
00FD 750000      E     MOV     ?_OLED_DrawBMP?BYTE+06H,#LOW Num_7
0100         ?C0044:
0100 8046              SJMP    ?C0047
                                           ; SOURCE LINE # 21
0102         ?C0010:
0102 AF00        R     MOV     R7,x+01H
0104 AD00        R     MOV     R5,y+01H
0106 EF                MOV     A,R7
0107 240E              ADD     A,#0EH
0109 FB                MOV     R3,A
010A ED                MOV     A,R5
010B 2403              ADD     A,#03H
010D F500        E     MOV     ?_OLED_DrawBMP?BYTE+03H,A
010F 7500FF      E     MOV     ?_OLED_DrawBMP?BYTE+04H,#0FFH
0112 750000      E     MOV     ?_OLED_DrawBMP?BYTE+05H,#HIGH Num_8
0115 750000      E     MOV     ?_OLED_DrawBMP?BYTE+06H,#LOW Num_8
0118         ?C0045:
0118 802E              SJMP    ?C0047
                                           ; SOURCE LINE # 22
011A         ?C0011:
011A AF00        R     MOV     R7,x+01H
011C AD00        R     MOV     R5,y+01H
011E EF                MOV     A,R7
011F 240E              ADD     A,#0EH
0121 FB                MOV     R3,A
C51 COMPILER V9.60.0.0   OLED_GUI                                                          03/11/2022 13:49:23 PAGE 7   

0122 ED                MOV     A,R5
0123 2403              ADD     A,#03H
0125 F500        E     MOV     ?_OLED_DrawBMP?BYTE+03H,A
0127 7500FF      E     MOV     ?_OLED_DrawBMP?BYTE+04H,#0FFH
012A 750000      E     MOV     ?_OLED_DrawBMP?BYTE+05H,#HIGH Num_9
012D 750000      E     MOV     ?_OLED_DrawBMP?BYTE+06H,#LOW Num_9
0130         ?C0046:
0130 8016              SJMP    ?C0047
                                           ; SOURCE LINE # 23
0132         ?C0012:
0132         ?C0038:
0132 AF00        R     MOV     R7,x+01H
0134 AD00        R     MOV     R5,y+01H
0136 EF                MOV     A,R7
0137 240E              ADD     A,#0EH
0139 FB                MOV     R3,A
013A ED                MOV     A,R5
013B 2403              ADD     A,#03H
013D F500        E     MOV     ?_OLED_DrawBMP?BYTE+03H,A
013F 7500FF      E     MOV     ?_OLED_DrawBMP?BYTE+04H,#0FFH
0142 750000      E     MOV     ?_OLED_DrawBMP?BYTE+05H,#HIGH Num_0
0145 750000      E     MOV     ?_OLED_DrawBMP?BYTE+06H,#LOW Num_0
0148         ?C0047:
0148 120000      E     LCALL   _OLED_DrawBMP
                                           ; SOURCE LINE # 24
                                           ; SOURCE LINE # 25
014B         ?C0013:
014B 22                RET     
             ; FUNCTION _GUI_NumDisplay (END)

             ; FUNCTION GUI_Print (BEGIN)
                                           ; SOURCE LINE # 27
                                           ; SOURCE LINE # 28
                                           ; SOURCE LINE # 29
0000 7800        E     MOV     R0,#LOW gpsRxBuffer+01H
0002 E6                MOV     A,@R0
0003 6442              XRL     A,#042H
0005 7061              JNZ     ?C0014
                                           ; SOURCE LINE # 30
                                           ; SOURCE LINE # 31
0007 18                DEC     R0
0008 E6                MOV     A,@R0
0009 FB                MOV     R3,A
000A E4                CLR     A
000B FD                MOV     R5,A
000C FF                MOV     R7,A
000D 120000      E     LCALL   _OLED_ShowChar
                                           ; SOURCE LINE # 32
0010 7800        E     MOV     R0,#LOW gpsRxBuffer+01H
0012 E6                MOV     A,@R0
0013 FB                MOV     R3,A
0014 E4                CLR     A
0015 FD                MOV     R5,A
0016 7F0A              MOV     R7,#0AH
0018 120000      E     LCALL   _OLED_ShowChar
                                           ; SOURCE LINE # 33
001B 7800        E     MOV     R0,#LOW gpsRxBuffer+02H
001D E6                MOV     A,@R0
001E FB                MOV     R3,A
001F E4                CLR     A
0020 FD                MOV     R5,A
0021 7F14              MOV     R7,#014H
C51 COMPILER V9.60.0.0   OLED_GUI                                                          03/11/2022 13:49:23 PAGE 8   

0023 120000      E     LCALL   _OLED_ShowChar
                                           ; SOURCE LINE # 34
0026 7800        E     MOV     R0,#LOW gpsRxBuffer+03H
0028 E6                MOV     A,@R0
0029 FB                MOV     R3,A
002A E4                CLR     A
002B FD                MOV     R5,A
002C 7F1E              MOV     R7,#01EH
002E 120000      E     LCALL   _OLED_ShowChar
                                           ; SOURCE LINE # 35
0031 7800        E     MOV     R0,#LOW gpsRxBuffer+04H
0033 E6                MOV     A,@R0
0034 FB                MOV     R3,A
0035 E4                CLR     A
0036 FD                MOV     R5,A
0037 7F28              MOV     R7,#028H
0039 120000      E     LCALL   _OLED_ShowChar
                                           ; SOURCE LINE # 36
003C 7800        E     MOV     R0,#LOW gpsRxBuffer+05H
003E E6                MOV     A,@R0
003F FB                MOV     R3,A
0040 E4                CLR     A
0041 FD                MOV     R5,A
0042 7F32              MOV     R7,#032H
0044 120000      E     LCALL   _OLED_ShowChar
                                           ; SOURCE LINE # 37
0047 7800        E     MOV     R0,#LOW gpsRxBuffer+06H
0049 E6                MOV     A,@R0
004A FB                MOV     R3,A
004B E4                CLR     A
004C FD                MOV     R5,A
004D 7F3C              MOV     R7,#03CH
004F 120000      E     LCALL   _OLED_ShowChar
                                           ; SOURCE LINE # 38
0052 7800        E     MOV     R0,#LOW gpsRxBuffer+07H
0054 E6                MOV     A,@R0
0055 FB                MOV     R3,A
0056 E4                CLR     A
0057 FD                MOV     R5,A
0058 7F46              MOV     R7,#046H
005A 120000      E     LCALL   _OLED_ShowChar
                                           ; SOURCE LINE # 39
005D 7800        E     MOV     R0,#LOW gpsRxBuffer+08H
005F E6                MOV     A,@R0
0060 FB                MOV     R3,A
0061 E4                CLR     A
0062 FD                MOV     R5,A
0063 7F50              MOV     R7,#050H
0065 120000      E     LCALL   _OLED_ShowChar
                                           ; SOURCE LINE # 40
0068         ?C0014:
                                           ; SOURCE LINE # 41
0068 7800        E     MOV     R0,#LOW gpsRxBuffer+01H
006A E6                MOV     A,@R0
006B 6442              XRL     A,#042H
006D 6003              JZ      $ + 5H
006F 020000      R     LJMP    ?C0015
0072 7800        E     MOV     R0,#LOW gpsRxBuffer+05H
0074 E6                MOV     A,@R0
0075 6456              XRL     A,#056H
0077 6003              JZ      $ + 5H
0079 020000      R     LJMP    ?C0015
C51 COMPILER V9.60.0.0   OLED_GUI                                                          03/11/2022 13:49:23 PAGE 9   

                                           ; SOURCE LINE # 42
                                           ; SOURCE LINE # 43
007C 7800        E     MOV     R0,#LOW gpsRxBuffer
007E E6                MOV     A,@R0
007F FB                MOV     R3,A
0080 7D02              MOV     R5,#02H
0082 E4                CLR     A
0083 FF                MOV     R7,A
0084 120000      E     LCALL   _OLED_ShowChar
                                           ; SOURCE LINE # 44
0087 7800        E     MOV     R0,#LOW gpsRxBuffer+01H
0089 E6                MOV     A,@R0
008A FB                MOV     R3,A
008B 7D02              MOV     R5,#02H
008D 7F0A              MOV     R7,#0AH
008F 120000      E     LCALL   _OLED_ShowChar
                                           ; SOURCE LINE # 45
0092 7800        E     MOV     R0,#LOW gpsRxBuffer+02H
0094 E6                MOV     A,@R0
0095 FB                MOV     R3,A
0096 7D02              MOV     R5,#02H
0098 7F14              MOV     R7,#014H
009A 120000      E     LCALL   _OLED_ShowChar
                                           ; SOURCE LINE # 46
009D 7800        E     MOV     R0,#LOW gpsRxBuffer+03H
009F E6                MOV     A,@R0
00A0 FB                MOV     R3,A
00A1 7D02              MOV     R5,#02H
00A3 7F1E              MOV     R7,#01EH
00A5 120000      E     LCALL   _OLED_ShowChar
                                           ; SOURCE LINE # 47
00A8 7800        E     MOV     R0,#LOW gpsRxBuffer+04H
00AA E6                MOV     A,@R0
00AB FB                MOV     R3,A
00AC 7D02              MOV     R5,#02H
00AE 7F28              MOV     R7,#028H
00B0 120000      E     LCALL   _OLED_ShowChar
                                           ; SOURCE LINE # 48
00B3 7800        E     MOV     R0,#LOW gpsRxBuffer+05H
00B5 E6                MOV     A,@R0
00B6 FB                MOV     R3,A
00B7 7D02              MOV     R5,#02H
00B9 7F32              MOV     R7,#032H
00BB 120000      E     LCALL   _OLED_ShowChar
                                           ; SOURCE LINE # 49
00BE 7800        E     MOV     R0,#LOW gpsRxBuffer+06H
00C0 E6                MOV     A,@R0
00C1 FB                MOV     R3,A
00C2 7D02              MOV     R5,#02H
00C4 7F3C              MOV     R7,#03CH
00C6 120000      E     LCALL   _OLED_ShowChar
                                           ; SOURCE LINE # 50
00C9 7800        E     MOV     R0,#LOW gpsRxBuffer+07H
00CB E6                MOV     A,@R0
00CC FB                MOV     R3,A
00CD 7D02              MOV     R5,#02H
00CF 7F46              MOV     R7,#046H
00D1 120000      E     LCALL   _OLED_ShowChar
                                           ; SOURCE LINE # 51
00D4 7800        E     MOV     R0,#LOW gpsRxBuffer+08H
00D6 E6                MOV     A,@R0
00D7 FB                MOV     R3,A
C51 COMPILER V9.60.0.0   OLED_GUI                                                          03/11/2022 13:49:23 PAGE 10  

00D8 7D02              MOV     R5,#02H
00DA 7F50              MOV     R7,#050H
00DC 120000      E     LCALL   _OLED_ShowChar
                                           ; SOURCE LINE # 52
00DF 7800        E     MOV     R0,#LOW gpsRxBuffer+09H
00E1 E6                MOV     A,@R0
00E2 FB                MOV     R3,A
00E3 7D02              MOV     R5,#02H
00E5 7F5A              MOV     R7,#05AH
00E7 120000      E     LCALL   _OLED_ShowChar
                                           ; SOURCE LINE # 53
00EA 7800        E     MOV     R0,#LOW gpsRxBuffer+0AH
00EC E6                MOV     A,@R0
00ED FB                MOV     R3,A
00EE 7D02              MOV     R5,#02H
00F0 7F64              MOV     R7,#064H
00F2 120000      E     LCALL   _OLED_ShowChar
                                           ; SOURCE LINE # 54
00F5 7800        E     MOV     R0,#LOW gpsRxBuffer+0BH
00F7 E6                MOV     A,@R0
00F8 FB                MOV     R3,A
00F9 7D02              MOV     R5,#02H
00FB 7F6E              MOV     R7,#06EH
00FD 120000      E     LCALL   _OLED_ShowChar
                                           ; SOURCE LINE # 55
0100 7800        E     MOV     R0,#LOW gpsRxBuffer+0CH
0102 E6                MOV     A,@R0
0103 FB                MOV     R3,A
0104 7D02              MOV     R5,#02H
0106 7F78              MOV     R7,#078H
0108 120000      E     LCALL   _OLED_ShowChar
                                           ; SOURCE LINE # 56
010B         ?C0015:
                                           ; SOURCE LINE # 57
010B 7800        E     MOV     R0,#LOW gpsRxBuffer+02H
010D E6                MOV     A,@R0
010E 644E              XRL     A,#04EH
0110 6003              JZ      $ + 5H
0112 020000      R     LJMP    ?C0016
0115 7800        E     MOV     R0,#LOW gpsRxBuffer+05H
0117 E6                MOV     A,@R0
0118 6443              XRL     A,#043H
011A 6003              JZ      $ + 5H
011C 020000      R     LJMP    ?C0016
                                           ; SOURCE LINE # 58
                                           ; SOURCE LINE # 59
011F 7800        E     MOV     R0,#LOW gpsRxBuffer
0121 E6                MOV     A,@R0
0122 FB                MOV     R3,A
0123 7D04              MOV     R5,#04H
0125 E4                CLR     A
0126 FF                MOV     R7,A
0127 120000      E     LCALL   _OLED_ShowChar
                                           ; SOURCE LINE # 60
012A 7800        E     MOV     R0,#LOW gpsRxBuffer+01H
012C E6                MOV     A,@R0
012D FB                MOV     R3,A
012E 7D04              MOV     R5,#04H
0130 7F0A              MOV     R7,#0AH
0132 120000      E     LCALL   _OLED_ShowChar
                                           ; SOURCE LINE # 61
0135 7800        E     MOV     R0,#LOW gpsRxBuffer+02H
C51 COMPILER V9.60.0.0   OLED_GUI                                                          03/11/2022 13:49:23 PAGE 11  

0137 E6                MOV     A,@R0
0138 FB                MOV     R3,A
0139 7D04              MOV     R5,#04H
013B 7F14              MOV     R7,#014H
013D 120000      E     LCALL   _OLED_ShowChar
                                           ; SOURCE LINE # 62
0140 7800        E     MOV     R0,#LOW gpsRxBuffer+03H
0142 E6                MOV     A,@R0
0143 FB                MOV     R3,A
0144 7D04              MOV     R5,#04H
0146 7F1E              MOV     R7,#01EH
0148 120000      E     LCALL   _OLED_ShowChar
                                           ; SOURCE LINE # 63
014B 7800        E     MOV     R0,#LOW gpsRxBuffer+04H
014D E6                MOV     A,@R0
014E FB                MOV     R3,A
014F 7D04              MOV     R5,#04H
0151 7F28              MOV     R7,#028H
0153 120000      E     LCALL   _OLED_ShowChar
                                           ; SOURCE LINE # 64
0156 7800        E     MOV     R0,#LOW gpsRxBuffer+05H
0158 E6                MOV     A,@R0
0159 FB                MOV     R3,A
015A 7D04              MOV     R5,#04H
015C 7F32              MOV     R7,#032H
015E 120000      E     LCALL   _OLED_ShowChar
                                           ; SOURCE LINE # 65
0161 7800        E     MOV     R0,#LOW gpsRxBuffer+07H
0163 E6                MOV     A,@R0
0164 FB                MOV     R3,A
0165 7D04              MOV     R5,#04H
0167 7F3C              MOV     R7,#03CH
0169 120000      E     LCALL   _OLED_ShowChar
                                           ; SOURCE LINE # 66
016C 7800        E     MOV     R0,#LOW gpsRxBuffer+08H
016E E6                MOV     A,@R0
016F FB                MOV     R3,A
0170 7D04              MOV     R5,#04H
0172 7F46              MOV     R7,#046H
0174 120000      E     LCALL   _OLED_ShowChar
                                           ; SOURCE LINE # 67
0177 7800        E     MOV     R0,#LOW gpsRxBuffer+09H
0179 E6                MOV     A,@R0
017A FB                MOV     R3,A
017B 7D04              MOV     R5,#04H
017D 7F50              MOV     R7,#050H
017F 120000      E     LCALL   _OLED_ShowChar
                                           ; SOURCE LINE # 68
0182 7800        E     MOV     R0,#LOW gpsRxBuffer+0AH
0184 E6                MOV     A,@R0
0185 FB                MOV     R3,A
0186 7D04              MOV     R5,#04H
0188 7F5A              MOV     R7,#05AH
018A 120000      E     LCALL   _OLED_ShowChar
                                           ; SOURCE LINE # 69
018D 7800        E     MOV     R0,#LOW gpsRxBuffer+0BH
018F E6                MOV     A,@R0
0190 FB                MOV     R3,A
0191 7D04              MOV     R5,#04H
0193 7F64              MOV     R7,#064H
0195 120000      E     LCALL   _OLED_ShowChar
                                           ; SOURCE LINE # 70
C51 COMPILER V9.60.0.0   OLED_GUI                                                          03/11/2022 13:49:23 PAGE 12  

0198 7800        E     MOV     R0,#LOW gpsRxBuffer+0CH
019A E6                MOV     A,@R0
019B FB                MOV     R3,A
019C 7D04              MOV     R5,#04H
019E 7F6E              MOV     R7,#06EH
01A0 020000      E     LJMP    _OLED_ShowChar
                                           ; SOURCE LINE # 71
01A3         ?C0016:
                                           ; SOURCE LINE # 72
                                           ; SOURCE LINE # 73
01A3 7BFF              MOV     R3,#0FFH
01A5 7A00        R     MOV     R2,#HIGH ?SC_0
01A7 7900        R     MOV     R1,#LOW ?SC_0
01A9 7D06              MOV     R5,#06H
01AB E4                CLR     A
01AC FF                MOV     R7,A
01AD 120000      E     LCALL   _OLED_ShowString
                                           ; SOURCE LINE # 74
                                           ; SOURCE LINE # 75
01B0         ?C0018:
01B0 22                RET     
             ; FUNCTION GUI_Print (END)

             ; FUNCTION GUI_DisBMP280 (BEGIN)
                                           ; SOURCE LINE # 76
                                           ; SOURCE LINE # 77
                                           ; SOURCE LINE # 78
0000 120000      E     LCALL   bmp280Convert
                                           ; SOURCE LINE # 79
0003 7BFF              MOV     R3,#0FFH
0005 7A00        R     MOV     R2,#HIGH ?SC_9
0007 7900        R     MOV     R1,#LOW ?SC_9
0009 7DFF              MOV     R5,#0FFH
000B E4                CLR     A
000C FF                MOV     R7,A
000D 120000      E     LCALL   _OLED_ShowString
                                           ; SOURCE LINE # 80
0010 7BFF              MOV     R3,#0FFH
0012 7A00        R     MOV     R2,#HIGH ?SC_17
0014 7900        R     MOV     R1,#LOW ?SC_17
0016 E4                CLR     A
0017 FD                MOV     R5,A
0018 FF                MOV     R7,A
0019 120000      E     LCALL   _OLED_ShowString
                                           ; SOURCE LINE # 82
001C E4                CLR     A
001D 7B64              MOV     R3,#064H
001F FA                MOV     R2,A
0020 F9                MOV     R1,A
0021 F8                MOV     R0,A
0022 AF00        E     MOV     R7,temperature+03H
0024 AE00        E     MOV     R6,temperature+02H
0026 AD00        E     MOV     R5,temperature+01H
0028 AC00        E     MOV     R4,temperature
002A 120000      E     LCALL   ?C?SLDIV
002D AB07              MOV     R3,AR7
002F AA06              MOV     R2,AR6
0031 750002      E     MOV     ?_OLED_ShowNum?BYTE+04H,#02H
0034 750010      E     MOV     ?_OLED_ShowNum?BYTE+05H,#010H
0037 E4                CLR     A
0038 FD                MOV     R5,A
0039 7F24              MOV     R7,#024H
C51 COMPILER V9.60.0.0   OLED_GUI                                                          03/11/2022 13:49:23 PAGE 13  

003B 120000      E     LCALL   _OLED_ShowNum
                                           ; SOURCE LINE # 83
003E 7BFF              MOV     R3,#0FFH
0040 7A00        R     MOV     R2,#HIGH ?SC_22
0042 7900        R     MOV     R1,#LOW ?SC_22
0044 E4                CLR     A
0045 FD                MOV     R5,A
0046 7F34              MOV     R7,#034H
0048 120000      E     LCALL   _OLED_ShowString
                                           ; SOURCE LINE # 84
004B E4                CLR     A
004C 7B64              MOV     R3,#064H
004E FA                MOV     R2,A
004F F9                MOV     R1,A
0050 F8                MOV     R0,A
0051 AF00        E     MOV     R7,temperature+03H
0053 AE00        E     MOV     R6,temperature+02H
0055 AD00        E     MOV     R5,temperature+01H
0057 AC00        E     MOV     R4,temperature
0059 120000      E     LCALL   ?C?SLDIV
005C 750002      E     MOV     ?_OLED_ShowNum?BYTE+04H,#02H
005F 750010      E     MOV     ?_OLED_ShowNum?BYTE+05H,#010H
0062 E4                CLR     A
0063 FD                MOV     R5,A
0064 7F3A              MOV     R7,#03AH
0066 120000      E     LCALL   _OLED_ShowNum
                                           ; SOURCE LINE # 85
0069 7BFF              MOV     R3,#0FFH
006B 7A00        R     MOV     R2,#HIGH ?SC_24
006D 7900        R     MOV     R1,#LOW ?SC_24
006F E4                CLR     A
0070 FD                MOV     R5,A
0071 7F4E              MOV     R7,#04EH
0073 120000      E     LCALL   _OLED_ShowString
                                           ; SOURCE LINE # 86
0076 7BFF              MOV     R3,#0FFH
0078 7A00        R     MOV     R2,#HIGH ?SC_26
007A 7900        R     MOV     R1,#LOW ?SC_26
007C 7D01              MOV     R5,#01H
007E E4                CLR     A
007F FF                MOV     R7,A
0080 120000      E     LCALL   _OLED_ShowString
                                           ; SOURCE LINE # 87
0083 AA00        E     MOV     R2,humidity+02H
0085 AB00        E     MOV     R3,humidity+03H
0087 750004      E     MOV     ?_OLED_ShowNum?BYTE+04H,#04H
008A 750010      E     MOV     ?_OLED_ShowNum?BYTE+05H,#010H
008D 7D01              MOV     R5,#01H
008F 7F28              MOV     R7,#028H
0091 120000      E     LCALL   _OLED_ShowNum
                                           ; SOURCE LINE # 88
0094 7BFF              MOV     R3,#0FFH
0096 7A00        R     MOV     R2,#HIGH ?SC_31
0098 7900        R     MOV     R1,#LOW ?SC_31
009A 7D01              MOV     R5,#01H
009C 7F4E              MOV     R7,#04EH
009E 120000      E     LCALL   _OLED_ShowString
                                           ; SOURCE LINE # 89
00A1 7BFF              MOV     R3,#0FFH
00A3 7A00        R     MOV     R2,#HIGH ?SC_33
00A5 7900        R     MOV     R1,#LOW ?SC_33
00A7 7D02              MOV     R5,#02H
C51 COMPILER V9.60.0.0   OLED_GUI                                                          03/11/2022 13:49:23 PAGE 14  

00A9 E4                CLR     A
00AA FF                MOV     R7,A
00AB 120000      E     LCALL   _OLED_ShowString
                                           ; SOURCE LINE # 90
00AE AA00        E     MOV     R2,pressure+02H
00B0 AB00        E     MOV     R3,pressure+03H
00B2 75000A      E     MOV     ?_OLED_ShowNum?BYTE+04H,#0AH
00B5 750010      E     MOV     ?_OLED_ShowNum?BYTE+05H,#010H
00B8 7D02              MOV     R5,#02H
00BA 7F28              MOV     R7,#028H
00BC 120000      E     LCALL   _OLED_ShowNum
                                           ; SOURCE LINE # 92
00BF 7BFF              MOV     R3,#0FFH
00C1 7A00        R     MOV     R2,#HIGH ?SC_37
00C3 7900        R     MOV     R1,#LOW ?SC_37
00C5 7D03              MOV     R5,#03H
00C7 E4                CLR     A
00C8 FF                MOV     R7,A
00C9 120000      E     LCALL   _OLED_ShowString
                                           ; SOURCE LINE # 93
00CC AA00        E     MOV     R2,height+02H
00CE AB00        E     MOV     R3,height+03H
00D0 75000A      E     MOV     ?_OLED_ShowNum?BYTE+04H,#0AH
00D3 750010      E     MOV     ?_OLED_ShowNum?BYTE+05H,#010H
00D6 7D03              MOV     R5,#03H
00D8 7F28              MOV     R7,#028H
00DA 020000      E     LJMP    _OLED_ShowNum
             ; FUNCTION GUI_DisBMP280 (END)

             ; FUNCTION GUI_DisGPS (BEGIN)
                                           ; SOURCE LINE # 97
                                           ; SOURCE LINE # 98
                                           ; SOURCE LINE # 99
0000 120000      E     LCALL   GPS_Handle
                                           ; SOURCE LINE # 100
0003 7BFF              MOV     R3,#0FFH
0005 7A00        R     MOV     R2,#HIGH ?SC_41
0007 7900        R     MOV     R1,#LOW ?SC_41
0009 E4                CLR     A
000A FD                MOV     R5,A
000B FF                MOV     R7,A
000C 120000      E     LCALL   _OLED_ShowString
                                           ; SOURCE LINE # 101
000F 7B01              MOV     R3,#01H
0011 7A00        E     MOV     R2,#HIGH Save_Data+052H
0013 7900        E     MOV     R1,#LOW Save_Data+052H
0015 E4                CLR     A
0016 FD                MOV     R5,A
0017 7F1E              MOV     R7,#01EH
0019 120000      E     LCALL   _OLED_ShowString
                                           ; SOURCE LINE # 102
001C 7BFF              MOV     R3,#0FFH
001E 7A00        R     MOV     R2,#HIGH ?SC_46
0020 7900        R     MOV     R1,#LOW ?SC_46
0022 7D01              MOV     R5,#01H
0024 E4                CLR     A
0025 FF                MOV     R7,A
0026 120000      E     LCALL   _OLED_ShowString
                                           ; SOURCE LINE # 103
0029 7B01              MOV     R3,#01H
002B 7A00        E     MOV     R2,#HIGH Save_Data+05DH
002D 7900        E     MOV     R1,#LOW Save_Data+05DH
C51 COMPILER V9.60.0.0   OLED_GUI                                                          03/11/2022 13:49:23 PAGE 15  

002F 7D02              MOV     R5,#02H
0031 7F1E              MOV     R7,#01EH
0033 120000      E     LCALL   _OLED_ShowString
                                           ; SOURCE LINE # 104
0036 7B01              MOV     R3,#01H
0038 7A00        E     MOV     R2,#HIGH Save_Data+068H
003A 7900        E     MOV     R1,#LOW Save_Data+068H
003C 7D02              MOV     R5,#02H
003E 7F64              MOV     R7,#064H
0040 120000      E     LCALL   _OLED_ShowString
                                           ; SOURCE LINE # 105
0043 7B01              MOV     R3,#01H
0045 7A00        E     MOV     R2,#HIGH Save_Data+06AH
0047 7900        E     MOV     R1,#LOW Save_Data+06AH
0049 7D03              MOV     R5,#03H
004B 7F1E              MOV     R7,#01EH
004D 120000      E     LCALL   _OLED_ShowString
                                           ; SOURCE LINE # 106
0050 7B01              MOV     R3,#01H
0052 7A00        E     MOV     R2,#HIGH Save_Data+076H
0054 7900        E     MOV     R1,#LOW Save_Data+076H
0056 7D03              MOV     R5,#03H
0058 7F64              MOV     R7,#064H
005A 120000      E     LCALL   _OLED_ShowString
                                           ; SOURCE LINE # 108
005D 020000      E     LJMP    Delay200ms
             ; FUNCTION GUI_DisGPS (END)

             ; FUNCTION GUI_TimeDisplay (BEGIN)
                                           ; SOURCE LINE # 112
                                           ; SOURCE LINE # 113
                                           ; SOURCE LINE # 114
0000 750000      R     MOV     x,#00H
0003 750007      R     MOV     x+01H,#07H
                                           ; SOURCE LINE # 115
0006 120000      E     LCALL   GPS_Handle
                                           ; SOURCE LINE # 116
0009 E500        R     MOV     A,OLED_Clean+01H
000B 4500        R     ORL     A,OLED_Clean
000D 7003              JNZ     ?C0021
                                           ; SOURCE LINE # 117
                                           ; SOURCE LINE # 118
000F 120000      E     LCALL   OLED_Clear
                                           ; SOURCE LINE # 119
0012         ?C0021:
                                           ; SOURCE LINE # 120
0012 900000      E     MOV     DPTR,#Save_Data+052H
0015 E0                MOVX    A,@DPTR
0016 FF                MOV     R7,A
0017 33                RLC     A
0018 95E0              SUBB    A,ACC
001A FE                MOV     R6,A
001B 7C00              MOV     R4,#00H
001D 7D0A              MOV     R5,#0AH
001F 120000      E     LCALL   ?C?IMUL
0022 A3                INC     DPTR
0023 E0                MOVX    A,@DPTR
0024 FD                MOV     R5,A
0025 33                RLC     A
0026 95E0              SUBB    A,ACC
0028 FC                MOV     R4,A
0029 EF                MOV     A,R7
C51 COMPILER V9.60.0.0   OLED_GUI                                                          03/11/2022 13:49:23 PAGE 16  

002A 2D                ADD     A,R5
002B FF                MOV     R7,A
002C EE                MOV     A,R6
002D 3C                ADDC    A,R4
002E CF                XCH     A,R7
002F 24F8              ADD     A,#0F8H
0031 F500        R     MOV     hour+01H,A
0033 EF                MOV     A,R7
0034 34FD              ADDC    A,#0FDH
0036 F500        R     MOV     hour,A
                                           ; SOURCE LINE # 121
0038 C3                CLR     C
0039 E500        R     MOV     A,hour+01H
003B 9418              SUBB    A,#018H
003D E500        R     MOV     A,hour
003F 9400              SUBB    A,#00H
0041 400F              JC      ?C0022
                                           ; SOURCE LINE # 122
                                           ; SOURCE LINE # 123
0043 AE00        R     MOV     R6,hour
0045 AF00        R     MOV     R7,hour+01H
0047 7C00              MOV     R4,#00H
0049 7D18              MOV     R5,#018H
004B 120000      E     LCALL   ?C?UIDIV
004E 8C00        R     MOV     hour,R4
0050 8D00        R     MOV     hour+01H,R5
                                           ; SOURCE LINE # 124
0052         ?C0022:
                                           ; SOURCE LINE # 125
0052 AE00        R     MOV     R6,hour
0054 AF00        R     MOV     R7,hour+01H
0056 7C00              MOV     R4,#00H
0058 7D0A              MOV     R5,#0AH
005A 120000      E     LCALL   ?C?UIDIV
005D AA06              MOV     R2,AR6
005F AB07              MOV     R3,AR7
0061 7D02              MOV     R5,#02H
0063 7C00              MOV     R4,#00H
0065 AF00        R     MOV     R7,x+01H
0067 AE00        R     MOV     R6,x
0069 120000      R     LCALL   _GUI_NumDisplay
                                           ; SOURCE LINE # 126
006C E500        R     MOV     A,x+01H
006E 2410              ADD     A,#010H
0070 FF                MOV     R7,A
0071 E4                CLR     A
0072 3500        R     ADDC    A,x
0074 FE                MOV     R6,A
0075 C006              PUSH    AR6
0077 C007              PUSH    AR7
0079 AE00        R     MOV     R6,hour
007B AF00        R     MOV     R7,hour+01H
007D 7C00              MOV     R4,#00H
007F 7D0A              MOV     R5,#0AH
0081 120000      E     LCALL   ?C?UIDIV
0084 AA04              MOV     R2,AR4
0086 AB05              MOV     R3,AR5
0088 D007              POP     AR7
008A D006              POP     AR6
008C 120000      R     LCALL   L?0052
                                           ; SOURCE LINE # 127
008F AE00        R     MOV     R6,x+01H
C51 COMPILER V9.60.0.0   OLED_GUI                                                          03/11/2022 13:49:23 PAGE 17  

0091 EE                MOV     A,R6
0092 2421              ADD     A,#021H
0094 FF                MOV     R7,A
0095 EE                MOV     A,R6
0096 2423              ADD     A,#023H
0098 FB                MOV     R3,A
0099 750005      E     MOV     ?_OLED_DrawBMP?BYTE+03H,#05H
009C 7500FF      E     MOV     ?_OLED_DrawBMP?BYTE+04H,#0FFH
009F 750000      E     MOV     ?_OLED_DrawBMP?BYTE+05H,#HIGH Pixel_Dot
00A2 750000      E     MOV     ?_OLED_DrawBMP?BYTE+06H,#LOW Pixel_Dot
00A5 7D03              MOV     R5,#03H
00A7 120000      E     LCALL   _OLED_DrawBMP
                                           ; SOURCE LINE # 128
00AA E500        R     MOV     A,x+01H
00AC 2427              ADD     A,#027H
00AE 900000      E     MOV     DPTR,#Save_Data+054H
00B1 120000      R     LCALL   L?0050
                                           ; SOURCE LINE # 129
00B4 E500        R     MOV     A,x+01H
00B6 2437              ADD     A,#037H
00B8 900000      E     MOV     DPTR,#Save_Data+055H
00BB 120000      R     LCALL   L?0050
                                           ; SOURCE LINE # 130
00BE AE00        R     MOV     R6,x+01H
00C0 EE                MOV     A,R6
00C1 2449              ADD     A,#049H
00C3 FF                MOV     R7,A
00C4 EE                MOV     A,R6
00C5 244B              ADD     A,#04BH
00C7 FB                MOV     R3,A
00C8 750005      E     MOV     ?_OLED_DrawBMP?BYTE+03H,#05H
00CB 7500FF      E     MOV     ?_OLED_DrawBMP?BYTE+04H,#0FFH
00CE 750000      E     MOV     ?_OLED_DrawBMP?BYTE+05H,#HIGH Pixel_Dot
00D1 750000      E     MOV     ?_OLED_DrawBMP?BYTE+06H,#LOW Pixel_Dot
00D4 7D03              MOV     R5,#03H
00D6 120000      E     LCALL   _OLED_DrawBMP
                                           ; SOURCE LINE # 131
00D9 E500        R     MOV     A,x+01H
00DB 244F              ADD     A,#04FH
00DD FF                MOV     R7,A
00DE E4                CLR     A
00DF 3500        R     ADDC    A,x
00E1 FE                MOV     R6,A
00E2 900000      E     MOV     DPTR,#Save_Data+056H
00E5 120000      R     LCALL   L?0051
                                           ; SOURCE LINE # 132
00E8 E500        R     MOV     A,x+01H
00EA 245F              ADD     A,#05FH
00EC FF                MOV     R7,A
00ED E4                CLR     A
00EE 3500        R     ADDC    A,x
00F0 FE                MOV     R6,A
00F1 900000      E     MOV     DPTR,#Save_Data+057H
00F4 E0                MOVX    A,@DPTR
00F5 FD                MOV     R5,A
00F6 33                RLC     A
00F7 95E0              SUBB    A,ACC
00F9 FC                MOV     R4,A
00FA ED                MOV     A,R5
00FB 24D0              ADD     A,#0D0H
00FD FB                MOV     R3,A
00FE EC                MOV     A,R4
C51 COMPILER V9.60.0.0   OLED_GUI                                                          03/11/2022 13:49:23 PAGE 18  

00FF 34FF              ADDC    A,#0FFH
0101 FA                MOV     R2,A
0102 7D02              MOV     R5,#02H
0104 7C00              MOV     R4,#00H
0106 020000      R     LJMP    _GUI_NumDisplay
             ; FUNCTION GUI_TimeDisplay (END)

             ; FUNCTION GUI_MenuFirst (BEGIN)
                                           ; SOURCE LINE # 137
                                           ; SOURCE LINE # 138
                                           ; SOURCE LINE # 139
0000 E500        R     MOV     A,MenuFirst_Flag+01H
0002 6500        R     XRL     A,TrueMenu_Flag+01H
0004 7004              JNZ     ?C0037
0006 E500        R     MOV     A,MenuFirst_Flag
0008 6500        R     XRL     A,TrueMenu_Flag
000A         ?C0037:
000A 6003              JZ      ?C0024
                                           ; SOURCE LINE # 140
                                           ; SOURCE LINE # 141
000C 120000      E     LCALL   OLED_Clear
                                           ; SOURCE LINE # 142
000F         ?C0024:
                                           ; SOURCE LINE # 144
000F E500        R     MOV     A,MenuFirst_Flag+01H
0011 6402              XRL     A,#02H
0013 4500        R     ORL     A,MenuFirst_Flag
0015 701A              JNZ     ?C0025
                                           ; SOURCE LINE # 145
                                           ; SOURCE LINE # 146
0017 750008      E     MOV     ?_OLED_DrawBMP?BYTE+03H,#08H
001A 7500FF      E     MOV     ?_OLED_DrawBMP?BYTE+04H,#0FFH
001D 750000      E     MOV     ?_OLED_DrawBMP?BYTE+05H,#HIGH BWeLyHqW
0020 750000      E     MOV     ?_OLED_DrawBMP?BYTE+06H,#LOW BWeLyHqW
0023 7B80              MOV     R3,#080H
0025 FD                MOV     R5,A
0026 FF                MOV     R7,A
0027 120000      E     LCALL   _OLED_DrawBMP
                                           ; SOURCE LINE # 147
002A E4                CLR     A
002B F500        R     MOV     OLED_Clean,A
002D F500        R     MOV     OLED_Clean+01H,A
                                           ; SOURCE LINE # 148
002F 802B              SJMP    ?C0026
0031         ?C0025:
0031 E500        R     MOV     A,MenuFirst_Flag+01H
0033 6401              XRL     A,#01H
0035 4500        R     ORL     A,MenuFirst_Flag
0037 7005              JNZ     ?C0027
                                           ; SOURCE LINE # 150
0039 120000      R     LCALL   GUI_TimeDisplay
                                           ; SOURCE LINE # 151
                                           ; SOURCE LINE # 152
003C 8018              SJMP    ?C0049
003E         ?C0027:
003E E500        R     MOV     A,MenuFirst_Flag+01H
0040 6403              XRL     A,#03H
0042 4500        R     ORL     A,MenuFirst_Flag
0044 7005              JNZ     ?C0029
                                           ; SOURCE LINE # 153
0046 120000      R     LCALL   GUI_DisBMP280
                                           ; SOURCE LINE # 154
C51 COMPILER V9.60.0.0   OLED_GUI                                                          03/11/2022 13:49:23 PAGE 19  

0049         ?C0048:
                                           ; SOURCE LINE # 155
0049 800B              SJMP    ?C0049
004B         ?C0029:
004B E500        R     MOV     A,MenuFirst_Flag+01H
004D 6404              XRL     A,#04H
004F 4500        R     ORL     A,MenuFirst_Flag
0051 7009              JNZ     ?C0026
                                           ; SOURCE LINE # 156
0053 120000      R     LCALL   GUI_DisGPS
                                           ; SOURCE LINE # 157
0056         ?C0049:
0056 750000      R     MOV     OLED_Clean,#00H
0059 750001      R     MOV     OLED_Clean+01H,#01H
                                           ; SOURCE LINE # 158
005C         ?C0026:
                                           ; SOURCE LINE # 159
005C 850000      R     MOV     TrueMenu_Flag,MenuFirst_Flag
005F 850000      R     MOV     TrueMenu_Flag+01H,MenuFirst_Flag+01H
                                           ; SOURCE LINE # 160
0062 22                RET     
             ; FUNCTION GUI_MenuFirst (END)

             ; FUNCTION GUI_MainFuction (BEGIN)
                                           ; SOURCE LINE # 163
                                           ; SOURCE LINE # 164
                                           ; SOURCE LINE # 165
0000 120000      E     LCALL   FirstMenukey
                                           ; SOURCE LINE # 166
0003 E500        R     MOV     A,MenuFirst_Top_Flag+01H
0005 6401              XRL     A,#01H
0007 4500        R     ORL     A,MenuFirst_Top_Flag
0009 7003              JNZ     ?C0034
                                           ; SOURCE LINE # 167
                                           ; SOURCE LINE # 168
000B 120000      R     LCALL   GUI_MenuFirst
                                           ; SOURCE LINE # 169
                                           ; SOURCE LINE # 173
000E         ?C0034:
000E 22                RET     
             ; FUNCTION GUI_MainFuction (END)

C51 COMPILER V9.60.0.0   OLED_GUI                                                          03/11/2022 13:49:23 PAGE 20  

NAME                                    CLASS   MSPACE  TYPE    OFFSET  SIZE
====                                    =====   ======  ====    ======  ====


pressure . . . . . . . . . . . . . . .  EXTERN   DATA   LONG     -----  4
uint16_t . . . . . . . . . . . . . . .  TYPEDEF  -----  U_INT    -----  2
MenuFirst_Flag . . . . . . . . . . . .  PUBLIC   DATA   U_INT    0000H  2
OLED_RST . . . . . . . . . . . . . . .  ABSBIT   -----  BIT      00B5H  1
P0 . . . . . . . . . . . . . . . . . .  SFR      DATA   U_CHAR   0080H  1
P1 . . . . . . . . . . . . . . . . . .  SFR      DATA   U_CHAR   0090H  1
P2 . . . . . . . . . . . . . . . . . .  SFR      DATA   U_CHAR   00A0H  1
P3 . . . . . . . . . . . . . . . . . .  SFR      DATA   U_CHAR   00B0H  1
T0 . . . . . . . . . . . . . . . . . .  ABSBIT   -----  BIT      00B4H  1
AC . . . . . . . . . . . . . . . . . .  ABSBIT   -----  BIT      00D6H  1
T1 . . . . . . . . . . . . . . . . . .  ABSBIT   -----  BIT      00B5H  1
T2 . . . . . . . . . . . . . . . . . .  ABSBIT   -----  BIT      0090H  1
EA . . . . . . . . . . . . . . . . . .  ABSBIT   -----  BIT      00AFH  1
int32_t. . . . . . . . . . . . . . . .  TYPEDEF  -----  LONG     -----  4
int16_t. . . . . . . . . . . . . . . .  TYPEDEF  -----  INT      -----  2
OLED_DC. . . . . . . . . . . . . . . .  ABSBIT   -----  BIT      00B4H  1
SaveData . . . . . . . . . . . . . . .  * TAG *  -----  STRUCT   -----  121
  GPS_Buffer . . . . . . . . . . . . .  MEMBER   -----  ARRAY    0000H  80
  isGetData. . . . . . . . . . . . . .  MEMBER   -----  CHAR     0050H  1
  isParseData. . . . . . . . . . . . .  MEMBER   -----  CHAR     0051H  1
  UTCTime. . . . . . . . . . . . . . .  MEMBER   -----  ARRAY    0052H  11
  latitude . . . . . . . . . . . . . .  MEMBER   -----  ARRAY    005DH  11
  N_S. . . . . . . . . . . . . . . . .  MEMBER   -----  ARRAY    0068H  2
  longitude. . . . . . . . . . . . . .  MEMBER   -----  ARRAY    006AH  12
  E_W. . . . . . . . . . . . . . . . .  MEMBER   -----  ARRAY    0076H  2
  isUsefull. . . . . . . . . . . . . .  MEMBER   -----  CHAR     0078H  1
Pixel_Dot. . . . . . . . . . . . . . .  EXTERN   CODE   ARRAY    -----  -----
IE . . . . . . . . . . . . . . . . . .  SFR      DATA   U_CHAR   00A8H  1
size_t . . . . . . . . . . . . . . . .  TYPEDEF  -----  U_INT    -----  2
MenuFirst_Top_Flag . . . . . . . . . .  PUBLIC   DATA   U_INT    0002H  2
EXF2 . . . . . . . . . . . . . . . . .  ABSBIT   -----  BIT      00CEH  1
RD . . . . . . . . . . . . . . . . . .  ABSBIT   -----  BIT      00B7H  1
TrueMenu_Flag. . . . . . . . . . . . .  PUBLIC   DATA   U_INT    0004H  2
ES . . . . . . . . . . . . . . . . . .  ABSBIT   -----  BIT      00ACH  1
IP . . . . . . . . . . . . . . . . . .  SFR      DATA   U_CHAR   00B8H  1
GPS_Handle . . . . . . . . . . . . . .  EXTERN   CODE   PROC     -----  -----
RI . . . . . . . . . . . . . . . . . .  ABSBIT   -----  BIT      0098H  1
OLED_CS. . . . . . . . . . . . . . . .  ABSBIT   -----  BIT      00B3H  1
INT0 . . . . . . . . . . . . . . . . .  ABSBIT   -----  BIT      00B2H  1
CY . . . . . . . . . . . . . . . . . .  ABSBIT   -----  BIT      00D7H  1
TI . . . . . . . . . . . . . . . . . .  ABSBIT   -----  BIT      0099H  1
INT1 . . . . . . . . . . . . . . . . .  ABSBIT   -----  BIT      00B3H  1
RCAP2H . . . . . . . . . . . . . . . .  SFR      DATA   U_CHAR   00CBH  1
PS . . . . . . . . . . . . . . . . . .  ABSBIT   -----  BIT      00BCH  1
SP . . . . . . . . . . . . . . . . . .  SFR      DATA   U_CHAR   0081H  1
T2EX . . . . . . . . . . . . . . . . .  ABSBIT   -----  BIT      0091H  1
_OLED_ShowString . . . . . . . . . . .  EXTERN   CODE   PROC     -----  -----
OV . . . . . . . . . . . . . . . . . .  ABSBIT   -----  BIT      00D2H  1
RCAP2L . . . . . . . . . . . . . . . .  SFR      DATA   U_CHAR   00CAH  1
C_T2 . . . . . . . . . . . . . . . . .  ABSBIT   -----  BIT      00C9H  1
WR . . . . . . . . . . . . . . . . . .  ABSBIT   -----  BIT      00B6H  1
_OLED_ShowChar . . . . . . . . . . . .  EXTERN   CODE   PROC     -----  -----
GUI_MainFuction. . . . . . . . . . . .  PUBLIC   CODE   PROC     0000H  -----
RCLK . . . . . . . . . . . . . . . . .  ABSBIT   -----  BIT      00CDH  1
TCLK . . . . . . . . . . . . . . . . .  ABSBIT   -----  BIT      00CCH  1
SBUF . . . . . . . . . . . . . . . . .  SFR      DATA   U_CHAR   0099H  1
PCON . . . . . . . . . . . . . . . . .  SFR      DATA   U_CHAR   0087H  1
C51 COMPILER V9.60.0.0   OLED_GUI                                                          03/11/2022 13:49:23 PAGE 21  

NAME                                    CLASS   MSPACE  TYPE    OFFSET  SIZE
====                                    =====   ======  ====    ======  ====


GUI_TimeDisplay. . . . . . . . . . . .  PUBLIC   CODE   PROC     0000H  -----
  x. . . . . . . . . . . . . . . . . .  AUTO     DATA   U_INT    0000H  2
SCON . . . . . . . . . . . . . . . . .  SFR      DATA   U_CHAR   0098H  1
OLED_SDIN. . . . . . . . . . . . . . .  ABSBIT   -----  BIT      00B6H  1
TMOD . . . . . . . . . . . . . . . . .  SFR      DATA   U_CHAR   0089H  1
TCON . . . . . . . . . . . . . . . . .  SFR      DATA   U_CHAR   0088H  1
temperature. . . . . . . . . . . . . .  EXTERN   DATA   LONG     -----  4
IE0. . . . . . . . . . . . . . . . . .  ABSBIT   -----  BIT      0089H  1
IE1. . . . . . . . . . . . . . . . . .  ABSBIT   -----  BIT      008BH  1
hour . . . . . . . . . . . . . . . . .  PUBLIC   DATA   U_INT    0006H  2
Num_0. . . . . . . . . . . . . . . . .  EXTERN   CODE   ARRAY    -----  -----
B. . . . . . . . . . . . . . . . . . .  SFR      DATA   U_CHAR   00F0H  1
bmp280Convert. . . . . . . . . . . . .  EXTERN   CODE   PROC     -----  -----
Num_1. . . . . . . . . . . . . . . . .  EXTERN   CODE   ARRAY    -----  -----
Num_2. . . . . . . . . . . . . . . . .  EXTERN   CODE   ARRAY    -----  -----
Num_3. . . . . . . . . . . . . . . . .  EXTERN   CODE   ARRAY    -----  -----
CP_RL2 . . . . . . . . . . . . . . . .  ABSBIT   -----  BIT      00C8H  1
Num_4. . . . . . . . . . . . . . . . .  EXTERN   CODE   ARRAY    -----  -----
Num_5. . . . . . . . . . . . . . . . .  EXTERN   CODE   ARRAY    -----  -----
Num_6. . . . . . . . . . . . . . . . .  EXTERN   CODE   ARRAY    -----  -----
ACC. . . . . . . . . . . . . . . . . .  SFR      DATA   U_CHAR   00E0H  1
Num_7. . . . . . . . . . . . . . . . .  EXTERN   CODE   ARRAY    -----  -----
Num_8. . . . . . . . . . . . . . . . .  EXTERN   CODE   ARRAY    -----  -----
ET0. . . . . . . . . . . . . . . . . .  ABSBIT   -----  BIT      00A9H  1
Num_9. . . . . . . . . . . . . . . . .  EXTERN   CODE   ARRAY    -----  -----
ET1. . . . . . . . . . . . . . . . . .  ABSBIT   -----  BIT      00ABH  1
TF0. . . . . . . . . . . . . . . . . .  ABSBIT   -----  BIT      008DH  1
ET2. . . . . . . . . . . . . . . . . .  ABSBIT   -----  BIT      00ADH  1
TF1. . . . . . . . . . . . . . . . . .  ABSBIT   -----  BIT      008FH  1
TF2. . . . . . . . . . . . . . . . . .  ABSBIT   -----  BIT      00CFH  1
RB8. . . . . . . . . . . . . . . . . .  ABSBIT   -----  BIT      009AH  1
TH0. . . . . . . . . . . . . . . . . .  SFR      DATA   U_CHAR   008CH  1
EX0. . . . . . . . . . . . . . . . . .  ABSBIT   -----  BIT      00A8H  1
IT0. . . . . . . . . . . . . . . . . .  ABSBIT   -----  BIT      0088H  1
TH1. . . . . . . . . . . . . . . . . .  SFR      DATA   U_CHAR   008DH  1
TB8. . . . . . . . . . . . . . . . . .  ABSBIT   -----  BIT      009BH  1
EX1. . . . . . . . . . . . . . . . . .  ABSBIT   -----  BIT      00AAH  1
IT1. . . . . . . . . . . . . . . . . .  ABSBIT   -----  BIT      008AH  1
TH2. . . . . . . . . . . . . . . . . .  SFR      DATA   U_CHAR   00CDH  1
uint8_t. . . . . . . . . . . . . . . .  TYPEDEF  -----  U_CHAR   -----  1
P. . . . . . . . . . . . . . . . . . .  ABSBIT   -----  BIT      00D0H  1
SM0. . . . . . . . . . . . . . . . . .  ABSBIT   -----  BIT      009FH  1
TL0. . . . . . . . . . . . . . . . . .  SFR      DATA   U_CHAR   008AH  1
SM1. . . . . . . . . . . . . . . . . .  ABSBIT   -----  BIT      009EH  1
TL1. . . . . . . . . . . . . . . . . .  SFR      DATA   U_CHAR   008BH  1
SM2. . . . . . . . . . . . . . . . . .  ABSBIT   -----  BIT      009DH  1
TL2. . . . . . . . . . . . . . . . . .  SFR      DATA   U_CHAR   00CCH  1
GUI_DisGPS . . . . . . . . . . . . . .  PUBLIC   CODE   PROC     0000H  -----
_GUI_NumDisplay. . . . . . . . . . . .  PUBLIC   CODE   PROC     0017H  -----
  x. . . . . . . . . . . . . . . . . .  AUTO     DATA   U_INT    0000H  2
  y. . . . . . . . . . . . . . . . . .  AUTO     DATA   U_INT    0002H  2
  num. . . . . . . . . . . . . . . . .  * REG *  DATA   U_INT    0002H  2
PT0. . . . . . . . . . . . . . . . . .  ABSBIT   -----  BIT      00B9H  1
PT1. . . . . . . . . . . . . . . . . .  ABSBIT   -----  BIT      00BBH  1
RS0. . . . . . . . . . . . . . . . . .  ABSBIT   -----  BIT      00D3H  1
GUI_Print. . . . . . . . . . . . . . .  PUBLIC   CODE   PROC     0000H  -----
PT2. . . . . . . . . . . . . . . . . .  ABSBIT   -----  BIT      00BDH  1
C51 COMPILER V9.60.0.0   OLED_GUI                                                          03/11/2022 13:49:23 PAGE 22  

NAME                                    CLASS   MSPACE  TYPE    OFFSET  SIZE
====                                    =====   ======  ====    ======  ====


TR0. . . . . . . . . . . . . . . . . .  ABSBIT   -----  BIT      008CH  1
RS1. . . . . . . . . . . . . . . . . .  ABSBIT   -----  BIT      00D4H  1
BWeLyHqW . . . . . . . . . . . . . . .  EXTERN   CODE   ARRAY    -----  -----
TR1. . . . . . . . . . . . . . . . . .  ABSBIT   -----  BIT      008EH  1
SDA. . . . . . . . . . . . . . . . . .  ABSBIT   -----  BIT      0090H  1
TR2. . . . . . . . . . . . . . . . . .  ABSBIT   -----  BIT      00CAH  1
PX0. . . . . . . . . . . . . . . . . .  ABSBIT   -----  BIT      00B8H  1
int8_t . . . . . . . . . . . . . . . .  TYPEDEF  -----  CHAR     -----  1
PX1. . . . . . . . . . . . . . . . . .  ABSBIT   -----  BIT      00BAH  1
_OLED_ShowNum. . . . . . . . . . . . .  EXTERN   CODE   PROC     -----  -----
DPH. . . . . . . . . . . . . . . . . .  SFR      DATA   U_CHAR   0083H  1
DPL. . . . . . . . . . . . . . . . . .  SFR      DATA   U_CHAR   0082H  1
SCL. . . . . . . . . . . . . . . . . .  ABSBIT   -----  BIT      0091H  1
GUI_DisBMP280. . . . . . . . . . . . .  PUBLIC   CODE   PROC     0000H  -----
EXEN2. . . . . . . . . . . . . . . . .  ABSBIT   -----  BIT      00CBH  1
REN. . . . . . . . . . . . . . . . . .  ABSBIT   -----  BIT      009CH  1
Delay200ms . . . . . . . . . . . . . .  EXTERN   CODE   PROC     -----  -----
T2CON. . . . . . . . . . . . . . . . .  SFR      DATA   U_CHAR   00C8H  1
OLED_SCL . . . . . . . . . . . . . . .  ABSBIT   -----  BIT      00B7H  1
GUI_MenuFirst. . . . . . . . . . . . .  PUBLIC   CODE   PROC     0000H  -----
OLED_Clean . . . . . . . . . . . . . .  PUBLIC   DATA   U_INT    0008H  2
wchar_t. . . . . . . . . . . . . . . .  TYPEDEF  -----  CHAR     -----  1
Save_Data. . . . . . . . . . . . . . .  EXTERN   XDATA  STRUCT   -----  121
_SaveData. . . . . . . . . . . . . . .  TYPEDEF  XDATA  STRUCT   -----  121
  GPS_Buffer . . . . . . . . . . . . .  MEMBER   -----  ARRAY    0000H  80
  isGetData. . . . . . . . . . . . . .  MEMBER   -----  CHAR     0050H  1
  isParseData. . . . . . . . . . . . .  MEMBER   -----  CHAR     0051H  1
  UTCTime. . . . . . . . . . . . . . .  MEMBER   -----  ARRAY    0052H  11
  latitude . . . . . . . . . . . . . .  MEMBER   -----  ARRAY    005DH  11
  N_S. . . . . . . . . . . . . . . . .  MEMBER   -----  ARRAY    0068H  2
  longitude. . . . . . . . . . . . . .  MEMBER   -----  ARRAY    006AH  12
  E_W. . . . . . . . . . . . . . . . .  MEMBER   -----  ARRAY    0076H  2
  isUsefull. . . . . . . . . . . . . .  MEMBER   -----  CHAR     0078H  1
FirstMenukey . . . . . . . . . . . . .  EXTERN   CODE   PROC     -----  -----
RXD. . . . . . . . . . . . . . . . . .  ABSBIT   -----  BIT      00B0H  1
OLED_Clear . . . . . . . . . . . . . .  EXTERN   CODE   PROC     -----  -----
TXD. . . . . . . . . . . . . . . . . .  ABSBIT   -----  BIT      00B1H  1
humidity . . . . . . . . . . . . . . .  EXTERN   DATA   LONG     -----  4
gpsRxBuffer. . . . . . . . . . . . . .  EXTERN   IDATA  ARRAY    -----  76
F0 . . . . . . . . . . . . . . . . . .  ABSBIT   -----  BIT      00D5H  1
_OLED_DrawBMP. . . . . . . . . . . . .  EXTERN   CODE   PROC     -----  -----
PSW. . . . . . . . . . . . . . . . . .  SFR      DATA   U_CHAR   00D0H  1
key1 . . . . . . . . . . . . . . . . .  ABSBIT   -----  BIT      00B2H  1
height . . . . . . . . . . . . . . . .  EXTERN   DATA   LONG     -----  4
uint32_t . . . . . . . . . . . . . . .  TYPEDEF  -----  U_LONG   -----  4


MODULE INFORMATION:   STATIC OVERLAYABLE
   CODE SIZE        =   1461    ----
   CONSTANT SIZE    =     58    ----
   XDATA SIZE       =   ----    ----
   PDATA SIZE       =   ----    ----
   DATA SIZE        =     10       6
   IDATA SIZE       =   ----    ----
   BIT SIZE         =   ----    ----
   EDATA SIZE       =   ----    ----
   HDATA SIZE       =   ----    ----
   XDATA CONST SIZE =   ----    ----
C51 COMPILER V9.60.0.0   OLED_GUI                                                          03/11/2022 13:49:23 PAGE 23  

   FAR CONST SIZE   =   ----    ----
END OF MODULE INFORMATION.


C51 COMPILATION COMPLETE.  0 WARNING(S),  0 ERROR(S)
