C51 COMPILER V9.60.0.0   BME280                                                            03/10/2022 00:19:06 PAGE 1   


C51 COMPILER V9.60.0.0, COMPILATION OF MODULE BME280
OBJECT MODULE PLACED IN .\build\Target 1\BMEBMP280\bme280.o
COMPILER INVOKED BY: C:\Keil_v5\C51\BIN\C51.exe .\BMEBMP280\BME280.C PRINT(.\build\Target 1\BMEBMP280\bme280.lst) OMF2 T
                    -ABS(4) CODE NOCOND SYMBOLS OPTIMIZE(8,SPEED) SMALL ROM(LARGE) INCDIR(.\null\INC\Atmel;.\0.96¡®OLED-SPI;.\0.96¡®OLED-SPI\
                    -BMP;.\USER;.\delay;.\°´¼ü;.\BMEBMP280;.\IIC;.\GPS;.\SPI;.\Ğı×ª±àÂëÆ÷;.\1.54'TFT;.\..\..\..\..\..\Keil_v5\C51\INC) DEFINE
                    -(__UVISION_VERSION=526) OBJECT(.\build\Target 1\BMEBMP280\bme280.o)

line level    source

   1          #include "bme280.h"
   2          #include "iic.h"
   3          
   4          #define BMP280_SlaveAddress   0xec  //å®šç¾©bmp280åœ¨IICçš„ä½å€
   5          #define   uchar unsigned char
   6          #define   uint unsigned int 
   7                                 
   8          unsigned short dig_T1;
   9          signed short dig_T2;
  10          signed short dig_T3;
  11          unsigned short dig_P1;
  12          signed short dig_P2;
  13          signed short dig_P3;
  14          signed short dig_P4;
  15          signed short dig_P5;
  16          signed short dig_P6;
  17          signed short dig_P7;
  18          signed short dig_P8;
  19          signed short dig_P9;
  20          unsigned char dig_H1;
  21          signed short dig_H2;
  22          unsigned char dig_H3;
  23          signed short dig_H4;
  24          signed short dig_H5;
  25          signed short dig_H6; 
  26          
  27          long  temperature;
  28          long  pressure;
  29          long  height;
  30          long  humidity;
  31          
  32          uchar Single_Read(uchar ST_Address)
  33          { 
  34   1              uchar REG_data;
  35   1              //uchar bit;
  36   1              
  37   1              iic_start();         
  38   1              iic_send_byte(BMP280_SlaveAddress); //ç™¼é€è¨­å‚™ä½å€         
  39   1              iic_ack();
  40   1              iic_send_byte(ST_Address);  // ç™¼é€å„²å­˜ä½å€          
  41   1              iic_ack(); 
  42   1              iic_start();                         
  43   1              iic_send_byte(BMP280_SlaveAddress+1);  //ç™¼é€è¨­å‚™ä½å€èˆ‡è®€ä¿¡è™Ÿ       
  44   1              iic_ack();    
  45   1              REG_data = iic_rev();     
  46   1              iic_ack(); //æœ€å¾Œä¸€ç­†éœ€è¦å›NOACK   
  47   1              return REG_data; 
  48   1      }
  49          
  50          void Single_Write(uchar SlaveAddress,uchar REG_Address,uchar REG_data)
  51          {
  52   1          iic_start();                       
C51 COMPILER V9.60.0.0   BME280                                                            03/10/2022 00:19:06 PAGE 2   

  53   1          iic_send_byte(SlaveAddress);  //ç™¼é€è¨­å‚™ä½å€èˆ‡å¯«å…¥ä¿¡è™Ÿ 
  54   1              iic_ack(); 
  55   1              iic_send_byte(REG_Address); //å…§éƒ¨æš«å­˜å™¨ä½å€   
  56   1              iic_ack(); 
  57   1              iic_send_byte(REG_data); // å…§éƒ¨æš«å­˜å™¨å¯«å…¥è³‡æ–™     
  58   1              iic_ack(); 
  59   1              iic_stop();                   
  60   1      }
  61          
  62          
  63          short Multiple_read(uchar ST_Address) //è®€å‡ºBMP280å…§éƒ¨è³‡æ–™,é€£çºŒå…©ç­†
  64          {   
  65   1              uchar msb, lsb;
  66   1              short _data;
  67   1              
  68   1              lsb = Single_Read(ST_Address);
  69   1              msb = Single_Read(ST_Address+1);
  70   1              
  71   1              _data = msb << 8;
  72   1              _data |= lsb;        
  73   1           
  74   1              return _data;
  75   1      }
  76          
  77          long Multiple_read_H(uchar ST_Address) //è®€å‡ºBMP280å…§éƒ¨è³‡æ–™,é€£çºŒå…©ç­†
  78          {   
  79   1              uchar msb, lsb;
  80   1              //short _data = 0;
  81   1              long _data = 0;
  82   1      
  83   1              msb = Single_Read(ST_Address);
  84   1              lsb = Single_Read(ST_Address+1);      
  85   1              
  86   1              _data=(long)(((uint32_t)msb<<8)|((uint32_t)lsb));
  87   1              //_data=((msb<<8)|lsb);
  88   1              return _data;
  89   1      }
  90          
  91          long Multiple_three_read(uchar ST_Address)
  92          {   
  93   1              uchar msb, lsb,xlsb;
  94   1              long _data = 0;
  95   1              
  96   1              msb = Single_Read(ST_Address);
  97   1              lsb = Single_Read(ST_Address+1);
  98   1              xlsb = Single_Read(ST_Address+2);
  99   1      
 100   1              _data=(long)(((uint32_t)msb<<12)|((uint32_t)lsb<<4)|((uint32_t)xlsb>>4));
 101   1              return _data;
 102   1      }
 103          
 104          
 105          
 106          void Init_BMP280(void)
 107          {
 108   1              unsigned short temp = 0;
 109   1              temp = Single_Read(0xd0);  //è®€å–idã€åˆ¤æ–·iicæ˜¯å¦æ­£å¸¸,æ¨¡çµ„æ˜¯å¦æ­£å¸¸ï¼Œè®€å–å‡ºä¾†çš„
             -ä½å€æ˜¯0x58å°±æ˜¯æ­£ç¢ºçš„
 110   1      
 111   1              dig_T1 = Multiple_read(0x88);
 112   1              dig_T2 = Multiple_read(0x8A);
 113   1              dig_T3 = Multiple_read(0x8C);
C51 COMPILER V9.60.0.0   BME280                                                            03/10/2022 00:19:06 PAGE 3   

 114   1              dig_P1 = Multiple_read(0x8E);
 115   1              dig_P2 = Multiple_read(0x90);
 116   1              dig_P3 = Multiple_read(0x92);
 117   1              dig_P4 = Multiple_read(0x94);
 118   1              dig_P5 = Multiple_read(0x96);
 119   1              dig_P6 = Multiple_read(0x98);
 120   1              dig_P7 = Multiple_read(0x9A);
 121   1              dig_P8 = Multiple_read(0x9C);
 122   1              dig_P9 = Multiple_read(0x9E);
 123   1              dig_H1 = Single_Read(0xA1);
 124   1              dig_H2 = Multiple_read(0xE1);
 125   1              dig_H3 = Single_Read(0xE3);
 126   1              dig_H4 = (Single_Read(0xE4)<< 4) | (Single_Read(0xE5) & 0x0F);
 127   1              dig_H5 = (Single_Read(0xE6)<< 4) | (Single_Read(0xE5) >> 4);
 128   1              dig_H6 = Single_Read(0xE7);
 129   1              
 130   1              Single_Write(BMP280_SlaveAddress,0xf2,0x04);
 131   1              Single_Write(BMP280_SlaveAddress,0xf4,0xb3);
 132   1              Single_Write(BMP280_SlaveAddress,0xf5,5<<2);
 133   1              Delay200ms();       
 134   1      }
 135          
 136          
 137          long bmp280Convert(void)
 138          {
 139   1              long adc_T,adc_P,adc_H;
 140   1              long var1, var2,t_fine; 
 141   1               //rt_kprintf("----------------------------\n");
 142   1              adc_H= Multiple_read_H(0xFD);
 143   1              //adc_T = Multiple_three_read(0xFA); 
 144   1              adc_T = Multiple_three_read(0xFA);  //è®€å‡ºæº«åº¦  
 145   1              //adc_P = Multiple_three_read(0xF7); 
 146   1              adc_P = Multiple_three_read(0xF7);   //è®€å‡ºå£“åŠ›
 147   1      
 148   1              if(adc_P == 0)
 149   1              {
 150   2                      return 0;
 151   2              }
 152   1              //Temperature
 153   1              var1 = (((double)adc_T)/16384.0-((double)dig_T1)/1024.0)*((double)dig_T2) ;
 154   1              //rt_kprintf("var1 is %d\n",var1);
 155   1              var2 = ((((double)adc_T)/131072.0-((double)dig_T1)/8192.0)*(((double)adc_T)/131072.0-((double)dig_
             -T1)/8192.0))*((double)dig_T3);
 156   1              //rt_kprintf("var2 is %d\n",var2);
 157   1              
 158   1              t_fine = (uint32_t)(var1+var2);
 159   1              //rt_kprintf("t_fine is %d\n",t_fine);
 160   1              
 161   1              temperature = t_fine*100/5120.0;  //5120.0   5520.0æ˜¯å› ç‚ºæº«åº¦å€¼å¤ªé«˜çš„èª¿æ•´
 162   1              
 163   1              //rt_kprintf("temperature is %d\n",T);
 164   1              
 165   1              var1 = ((double)t_fine/2.0)-64000.0;
 166   1              //rt_kprintf("var1 is %d\n",var1);
 167   1              
 168   1              var2 = var1*var1*((double)dig_P6)/32768.0;
 169   1              //rt_kprintf("var2 is %d\n",var2);
 170   1              
 171   1              var2 = var2+var1*((double)dig_P5)*2.0;
 172   1              //rt_kprintf("var2 is %d\n",var2);
 173   1              
 174   1              var2 = (var2/4.0)+(((double)dig_P4)*65536.0);
C51 COMPILER V9.60.0.0   BME280                                                            03/10/2022 00:19:06 PAGE 4   

 175   1              //rt_kprintf("var2 is %d\n",var2);
 176   1              
 177   1              var1 = (((double)dig_P3)*var1*var1/524288.0+((double)dig_P2)*var1)/524288.0;
 178   1              //rt_kprintf("var1 is %d\n",var1);
 179   1              
 180   1              var1 = (1.0+var1/32768.0)*((double)dig_P1);
 181   1              //rt_kprintf("var1 is %d\n",var1);
 182   1              
 183   1              pressure = 1048576.0-(double)adc_P;
 184   1              //rt_kprintf("p is %d\n",p);
 185   1      
 186   1              pressure = (pressure-(var2/4096.0))*6250.0/var1;
 187   1              //rt_kprintf("p is %d\n",p);
 188   1              //height = (44330-4961*pow(pressure, 0.19))*100;
 189   1              //height = (44330 * (1-pow((pressure/ 101325.0),(1.0/5.255))))*100;  //101325æ¨™æº–æµ·å¹³é¢å£“åŠ›ï¼Œä¸
             -æ˜¯æœ¬åœ°åŸºæœ¬å£“åŠ›
 190   1              height=(101325-pressure)*9;//è½‰åŒ–å¾—åˆ°çµ•å°é«˜åº¦
 191   1              //height=(101325-pressure) * 8.43  ;
 192   1      
 193   1              humidity  = (((double)t_fine)-76800.0);
 194   1              humidity  = (adc_H-(((double)dig_H4)*64.0+((double)dig_H5)/16384.0*humidity))*
 195   1                     (((double)dig_H2)/65536.0*(1.0+((double)dig_H6)/67108864.0*humidity*
 196   1                     (1.0+((double)dig_H3)/67108864.0*humidity)));
 197   1              humidity  = humidity*(1.0-((double)dig_H1)*humidity/524288.0);
 198   1              
 199   1          return 0;
 200   1       }   
 201           
C51 COMPILER V9.60.0.0   BME280                                                            03/10/2022 00:19:06 PAGE 5   

ASSEMBLY LISTING OF GENERATED OBJECT CODE


             ; FUNCTION L?0010 (BEGIN)
0000 7E00              MOV     R6,#00H
0002 7D00              MOV     R5,#00H
0004 7C00              MOV     R4,#00H
             ; FUNCTION _Single_Read (BEGIN)
                                           ; SOURCE LINE # 32
0006 8F00        R     MOV     ST_Address,R7
                                           ; SOURCE LINE # 33
                                           ; SOURCE LINE # 37
0008 120000      E     LCALL   iic_start
                                           ; SOURCE LINE # 38
000B 7FEC              MOV     R7,#0ECH
000D 120000      E     LCALL   _iic_send_byte
                                           ; SOURCE LINE # 39
0010 120000      E     LCALL   iic_ack
                                           ; SOURCE LINE # 40
0013 AF00        R     MOV     R7,ST_Address
0015 120000      E     LCALL   _iic_send_byte
                                           ; SOURCE LINE # 41
0018 120000      E     LCALL   iic_ack
                                           ; SOURCE LINE # 42
001B 120000      E     LCALL   iic_start
                                           ; SOURCE LINE # 43
001E 7FED              MOV     R7,#0EDH
0020 120000      E     LCALL   _iic_send_byte
                                           ; SOURCE LINE # 44
0023 120000      E     LCALL   iic_ack
                                           ; SOURCE LINE # 45
0026 120000      E     LCALL   iic_rev
0029 8F00        R     MOV     REG_data,R7
                                           ; SOURCE LINE # 46
002B 120000      E     LCALL   iic_ack
                                           ; SOURCE LINE # 47
002E AF00        R     MOV     R7,REG_data
                                           ; SOURCE LINE # 48
0030 22                RET     
             ; FUNCTION _Single_Read (END)

             ; FUNCTION _Single_Write (BEGIN)
                                           ; SOURCE LINE # 50
0000 8F00        R     MOV     SlaveAddress,R7
0002 8D00        R     MOV     REG_Address,R5
0004 8B00        R     MOV     REG_data,R3
                                           ; SOURCE LINE # 51
                                           ; SOURCE LINE # 52
0006 120000      E     LCALL   iic_start
                                           ; SOURCE LINE # 53
0009 AF00        R     MOV     R7,SlaveAddress
000B 120000      E     LCALL   _iic_send_byte
                                           ; SOURCE LINE # 54
000E 120000      E     LCALL   iic_ack
                                           ; SOURCE LINE # 55
0011 AF00        R     MOV     R7,REG_Address
0013 120000      E     LCALL   _iic_send_byte
                                           ; SOURCE LINE # 56
0016 120000      E     LCALL   iic_ack
                                           ; SOURCE LINE # 57
0019 AF00        R     MOV     R7,REG_data
001B 120000      E     LCALL   _iic_send_byte
C51 COMPILER V9.60.0.0   BME280                                                            03/10/2022 00:19:06 PAGE 6   

                                           ; SOURCE LINE # 58
001E 120000      E     LCALL   iic_ack
                                           ; SOURCE LINE # 59
0021 020000      E     LJMP    iic_stop
             ; FUNCTION _Single_Write (END)

             ; FUNCTION _Multiple_read (BEGIN)
                                           ; SOURCE LINE # 63
0000 8F00        R     MOV     ST_Address,R7
                                           ; SOURCE LINE # 64
                                           ; SOURCE LINE # 68
0002 120000      R     LCALL   _Single_Read
0005 8F00        R     MOV     lsb,R7
                                           ; SOURCE LINE # 69
0007 E500        R     MOV     A,ST_Address
0009 04                INC     A
000A FF                MOV     R7,A
000B 120000      R     LCALL   _Single_Read
;---- Variable 'msb' assigned to Register 'R7' ----
                                           ; SOURCE LINE # 71
000E EF                MOV     A,R7
000F FE                MOV     R6,A
;---- Variable '_data' assigned to Register 'R6/R7' ----
                                           ; SOURCE LINE # 72
0010 E500        R     MOV     A,lsb
0012 FF                MOV     R7,A
                                           ; SOURCE LINE # 74
                                           ; SOURCE LINE # 75
0013 22                RET     
             ; FUNCTION _Multiple_read (END)

             ; FUNCTION _Multiple_read_H (BEGIN)
                                           ; SOURCE LINE # 77
0000 8F00        R     MOV     ST_Address,R7
                                           ; SOURCE LINE # 78
                                           ; SOURCE LINE # 81
;---- Variable '_data' assigned to Register 'R4/R5/R6/R7' ----
                                           ; SOURCE LINE # 83
0002 AF00        R     MOV     R7,ST_Address
0004 120000      R     LCALL   L?0010
0007 8F00        R     MOV     msb,R7
                                           ; SOURCE LINE # 84
0009 E500        R     MOV     A,ST_Address
000B 04                INC     A
000C FF                MOV     R7,A
000D 120000      R     LCALL   _Single_Read
0010 8F00        R     MOV     lsb,R7
                                           ; SOURCE LINE # 86
0012 AF00        R     MOV     R7,msb
0014 E4                CLR     A
0015 FC                MOV     R4,A
0016 FD                MOV     R5,A
0017 FE                MOV     R6,A
0018 7808              MOV     R0,#08H
001A 120000      E     LCALL   ?C?LSHL
001D A804              MOV     R0,AR4
001F A905              MOV     R1,AR5
0021 AA06              MOV     R2,AR6
0023 AB07              MOV     R3,AR7
0025 EB                MOV     A,R3
0026 4500        R     ORL     A,lsb
0028 FF                MOV     R7,A
C51 COMPILER V9.60.0.0   BME280                                                            03/10/2022 00:19:06 PAGE 7   

0029 EA                MOV     A,R2
002A FE                MOV     R6,A
002B E9                MOV     A,R1
002C FD                MOV     R5,A
002D E8                MOV     A,R0
002E FC                MOV     R4,A
                                           ; SOURCE LINE # 88
                                           ; SOURCE LINE # 89
002F 22                RET     
             ; FUNCTION _Multiple_read_H (END)

             ; FUNCTION _Multiple_three_read (BEGIN)
                                           ; SOURCE LINE # 91
0000 8F00        R     MOV     ST_Address,R7
                                           ; SOURCE LINE # 92
                                           ; SOURCE LINE # 94
;---- Variable '_data' assigned to Register 'R4/R5/R6/R7' ----
                                           ; SOURCE LINE # 96
0002 AF00        R     MOV     R7,ST_Address
0004 120000      R     LCALL   L?0010
0007 8F00        R     MOV     msb,R7
                                           ; SOURCE LINE # 97
0009 E500        R     MOV     A,ST_Address
000B 04                INC     A
000C FF                MOV     R7,A
000D 120000      R     LCALL   _Single_Read
0010 8F00        R     MOV     lsb,R7
                                           ; SOURCE LINE # 98
0012 E500        R     MOV     A,ST_Address
0014 2402              ADD     A,#02H
0016 FF                MOV     R7,A
0017 120000      R     LCALL   _Single_Read
001A 8F00        R     MOV     xlsb,R7
                                           ; SOURCE LINE # 100
001C AF00        R     MOV     R7,lsb
001E E4                CLR     A
001F FC                MOV     R4,A
0020 FD                MOV     R5,A
0021 FE                MOV     R6,A
0022 7804              MOV     R0,#04H
0024 120000      E     LCALL   ?C?LSHL
0027 C004              PUSH    AR4
0029 C005              PUSH    AR5
002B C006              PUSH    AR6
002D C007              PUSH    AR7
002F AF00        R     MOV     R7,msb
0031 E4                CLR     A
0032 FC                MOV     R4,A
0033 FD                MOV     R5,A
0034 FE                MOV     R6,A
0035 780C              MOV     R0,#0CH
0037 120000      E     LCALL   ?C?LSHL
003A D003              POP     AR3
003C D002              POP     AR2
003E D001              POP     AR1
0040 D000              POP     AR0
0042 EF                MOV     A,R7
0043 4B                ORL     A,R3
0044 FF                MOV     R7,A
0045 EE                MOV     A,R6
0046 4A                ORL     A,R2
0047 FE                MOV     R6,A
C51 COMPILER V9.60.0.0   BME280                                                            03/10/2022 00:19:06 PAGE 8   

0048 ED                MOV     A,R5
0049 49                ORL     A,R1
004A FD                MOV     R5,A
004B EC                MOV     A,R4
004C 48                ORL     A,R0
004D FC                MOV     R4,A
004E C004              PUSH    AR4
0050 C005              PUSH    AR5
0052 C006              PUSH    AR6
0054 C007              PUSH    AR7
0056 AF00        R     MOV     R7,xlsb
0058 E4                CLR     A
0059 FC                MOV     R4,A
005A FD                MOV     R5,A
005B FE                MOV     R6,A
005C 7804              MOV     R0,#04H
005E 120000      E     LCALL   ?C?ULSHR
0061 D003              POP     AR3
0063 D002              POP     AR2
0065 D001              POP     AR1
0067 D000              POP     AR0
0069 EF                MOV     A,R7
006A 4B                ORL     A,R3
006B FF                MOV     R7,A
006C EE                MOV     A,R6
006D 4A                ORL     A,R2
006E FE                MOV     R6,A
006F ED                MOV     A,R5
0070 49                ORL     A,R1
0071 FD                MOV     R5,A
0072 EC                MOV     A,R4
0073 48                ORL     A,R0
0074 FC                MOV     R4,A
                                           ; SOURCE LINE # 101
                                           ; SOURCE LINE # 102
0075 22                RET     
             ; FUNCTION _Multiple_three_read (END)

             ; FUNCTION Init_BMP280 (BEGIN)
                                           ; SOURCE LINE # 106
                                           ; SOURCE LINE # 107
                                           ; SOURCE LINE # 108
0000 E4                CLR     A
0001 F500        R     MOV     temp,A
0003 F500        R     MOV     temp+01H,A
                                           ; SOURCE LINE # 109
0005 7FD0              MOV     R7,#0D0H
0007 120000      R     LCALL   _Single_Read
000A 750000      R     MOV     temp,#00H
000D 8F00        R     MOV     temp+01H,R7
                                           ; SOURCE LINE # 111
000F 7F88              MOV     R7,#088H
0011 120000      R     LCALL   _Multiple_read
0014 8E00        R     MOV     dig_T1,R6
0016 8F00        R     MOV     dig_T1+01H,R7
                                           ; SOURCE LINE # 112
0018 7F8A              MOV     R7,#08AH
001A 120000      R     LCALL   _Multiple_read
001D 8E00        R     MOV     dig_T2,R6
001F 8F00        R     MOV     dig_T2+01H,R7
                                           ; SOURCE LINE # 113
0021 7F8C              MOV     R7,#08CH
C51 COMPILER V9.60.0.0   BME280                                                            03/10/2022 00:19:06 PAGE 9   

0023 120000      R     LCALL   _Multiple_read
0026 8E00        R     MOV     dig_T3,R6
0028 8F00        R     MOV     dig_T3+01H,R7
                                           ; SOURCE LINE # 114
002A 7F8E              MOV     R7,#08EH
002C 120000      R     LCALL   _Multiple_read
002F 8E00        R     MOV     dig_P1,R6
0031 8F00        R     MOV     dig_P1+01H,R7
                                           ; SOURCE LINE # 115
0033 7F90              MOV     R7,#090H
0035 120000      R     LCALL   _Multiple_read
0038 8E00        R     MOV     dig_P2,R6
003A 8F00        R     MOV     dig_P2+01H,R7
                                           ; SOURCE LINE # 116
003C 7F92              MOV     R7,#092H
003E 120000      R     LCALL   _Multiple_read
0041 8E00        R     MOV     dig_P3,R6
0043 8F00        R     MOV     dig_P3+01H,R7
                                           ; SOURCE LINE # 117
0045 7F94              MOV     R7,#094H
0047 120000      R     LCALL   _Multiple_read
004A 8E00        R     MOV     dig_P4,R6
004C 8F00        R     MOV     dig_P4+01H,R7
                                           ; SOURCE LINE # 118
004E 7F96              MOV     R7,#096H
0050 120000      R     LCALL   _Multiple_read
0053 8E00        R     MOV     dig_P5,R6
0055 8F00        R     MOV     dig_P5+01H,R7
                                           ; SOURCE LINE # 119
0057 7F98              MOV     R7,#098H
0059 120000      R     LCALL   _Multiple_read
005C 8E00        R     MOV     dig_P6,R6
005E 8F00        R     MOV     dig_P6+01H,R7
                                           ; SOURCE LINE # 120
0060 7F9A              MOV     R7,#09AH
0062 120000      R     LCALL   _Multiple_read
0065 8E00        R     MOV     dig_P7,R6
0067 8F00        R     MOV     dig_P7+01H,R7
                                           ; SOURCE LINE # 121
0069 7F9C              MOV     R7,#09CH
006B 120000      R     LCALL   _Multiple_read
006E 8E00        R     MOV     dig_P8,R6
0070 8F00        R     MOV     dig_P8+01H,R7
                                           ; SOURCE LINE # 122
0072 7F9E              MOV     R7,#09EH
0074 120000      R     LCALL   _Multiple_read
0077 8E00        R     MOV     dig_P9,R6
0079 8F00        R     MOV     dig_P9+01H,R7
                                           ; SOURCE LINE # 123
007B 7FA1              MOV     R7,#0A1H
007D 120000      R     LCALL   _Single_Read
0080 8F00        R     MOV     dig_H1,R7
                                           ; SOURCE LINE # 124
0082 7FE1              MOV     R7,#0E1H
0084 120000      R     LCALL   _Multiple_read
0087 8E00        R     MOV     dig_H2,R6
0089 8F00        R     MOV     dig_H2+01H,R7
                                           ; SOURCE LINE # 125
008B 7FE3              MOV     R7,#0E3H
008D 120000      R     LCALL   _Single_Read
0090 8F00        R     MOV     dig_H3,R7
                                           ; SOURCE LINE # 126
C51 COMPILER V9.60.0.0   BME280                                                            03/10/2022 00:19:06 PAGE 10  

0092 7FE4              MOV     R7,#0E4H
0094 120000      R     LCALL   _Single_Read
0097 EF                MOV     A,R7
0098 75F010            MOV     B,#010H
009B A4                MUL     AB
009C FF                MOV     R7,A
009D AEF0              MOV     R6,B
009F C007              PUSH    AR7
00A1 C006              PUSH    AR6
00A3 7FE5              MOV     R7,#0E5H
00A5 120000      R     LCALL   _Single_Read
00A8 EF                MOV     A,R7
00A9 540F              ANL     A,#0FH
00AB FD                MOV     R5,A
00AC D0E0              POP     ACC
00AE F500        R     MOV     dig_H4,A
00B0 D0E0              POP     ACC
00B2 4D                ORL     A,R5
00B3 F500        R     MOV     dig_H4+01H,A
                                           ; SOURCE LINE # 127
00B5 7FE6              MOV     R7,#0E6H
00B7 120000      R     LCALL   _Single_Read
00BA EF                MOV     A,R7
00BB 75F010            MOV     B,#010H
00BE A4                MUL     AB
00BF FF                MOV     R7,A
00C0 AEF0              MOV     R6,B
00C2 C007              PUSH    AR7
00C4 C006              PUSH    AR6
00C6 7FE5              MOV     R7,#0E5H
00C8 120000      R     LCALL   _Single_Read
00CB EF                MOV     A,R7
00CC C4                SWAP    A
00CD 540F              ANL     A,#0FH
00CF FD                MOV     R5,A
00D0 D0E0              POP     ACC
00D2 F500        R     MOV     dig_H5,A
00D4 D0E0              POP     ACC
00D6 4D                ORL     A,R5
00D7 F500        R     MOV     dig_H5+01H,A
                                           ; SOURCE LINE # 128
00D9 7FE7              MOV     R7,#0E7H
00DB 120000      R     LCALL   _Single_Read
00DE 750000      R     MOV     dig_H6,#00H
00E1 8F00        R     MOV     dig_H6+01H,R7
                                           ; SOURCE LINE # 130
00E3 7B04              MOV     R3,#04H
00E5 7DF2              MOV     R5,#0F2H
00E7 7FEC              MOV     R7,#0ECH
00E9 120000      R     LCALL   _Single_Write
                                           ; SOURCE LINE # 131
00EC 7BB3              MOV     R3,#0B3H
00EE 7DF4              MOV     R5,#0F4H
00F0 7FEC              MOV     R7,#0ECH
00F2 120000      R     LCALL   _Single_Write
                                           ; SOURCE LINE # 132
00F5 7B14              MOV     R3,#014H
00F7 7DF5              MOV     R5,#0F5H
00F9 7FEC              MOV     R7,#0ECH
00FB 120000      R     LCALL   _Single_Write
                                           ; SOURCE LINE # 133
00FE 020000      E     LJMP    Delay200ms
C51 COMPILER V9.60.0.0   BME280                                                            03/10/2022 00:19:06 PAGE 11  

             ; FUNCTION Init_BMP280 (END)

             ; FUNCTION bmp280Convert (BEGIN)
                                           ; SOURCE LINE # 137
                                           ; SOURCE LINE # 138
                                           ; SOURCE LINE # 142
0000 7FFD              MOV     R7,#0FDH
0002 120000      R     LCALL   _Multiple_read_H
0005 8F00        R     MOV     adc_H+03H,R7
0007 8E00        R     MOV     adc_H+02H,R6
0009 8D00        R     MOV     adc_H+01H,R5
000B 8C00        R     MOV     adc_H,R4
                                           ; SOURCE LINE # 144
000D 7FFA              MOV     R7,#0FAH
000F 120000      R     LCALL   _Multiple_three_read
0012 8F00        R     MOV     adc_T+03H,R7
0014 8E00        R     MOV     adc_T+02H,R6
0016 8D00        R     MOV     adc_T+01H,R5
0018 8C00        R     MOV     adc_T,R4
                                           ; SOURCE LINE # 146
001A 7FF7              MOV     R7,#0F7H
001C 120000      R     LCALL   _Multiple_three_read
001F 8F00        R     MOV     adc_P+03H,R7
0021 8E00        R     MOV     adc_P+02H,R6
0023 8D00        R     MOV     adc_P+01H,R5
0025 8C00        R     MOV     adc_P,R4
                                           ; SOURCE LINE # 148
0027 EC                MOV     A,R4
0028 4D                ORL     A,R5
0029 4E                ORL     A,R6
002A 4F                ORL     A,R7
002B 7003              JNZ     ?C0007
                                           ; SOURCE LINE # 149
                                           ; SOURCE LINE # 150
002D 020000      R     LJMP    ?C0009
                                           ; SOURCE LINE # 151
0030         ?C0007:
                                           ; SOURCE LINE # 153
0030 AF00        R     MOV     R7,adc_T+03H
0032 AE00        R     MOV     R6,adc_T+02H
0034 AD00        R     MOV     R5,adc_T+01H
0036 AC00        R     MOV     R4,adc_T
0038 EC                MOV     A,R4
0039 120000      E     LCALL   ?C?FCASTL
003C E4                CLR     A
003D FB                MOV     R3,A
003E FA                MOV     R2,A
003F 7980              MOV     R1,#080H
0041 7846              MOV     R0,#046H
0043 120000      E     LCALL   ?C?FPDIV
0046 C004              PUSH    AR4
0048 C005              PUSH    AR5
004A C006              PUSH    AR6
004C C007              PUSH    AR7
004E AC00        R     MOV     R4,dig_T1
0050 AD00        R     MOV     R5,dig_T1+01H
0052 E4                CLR     A
0053 120000      E     LCALL   ?C?FCASTI
0056 E4                CLR     A
0057 FB                MOV     R3,A
0058 FA                MOV     R2,A
0059 7980              MOV     R1,#080H
C51 COMPILER V9.60.0.0   BME280                                                            03/10/2022 00:19:06 PAGE 12  

005B 7844              MOV     R0,#044H
005D 120000      E     LCALL   ?C?FPDIV
0060 A804              MOV     R0,AR4
0062 A905              MOV     R1,AR5
0064 AA06              MOV     R2,AR6
0066 AB07              MOV     R3,AR7
0068 D007              POP     AR7
006A D006              POP     AR6
006C D005              POP     AR5
006E D004              POP     AR4
0070 120000      E     LCALL   ?C?FPSUB
0073 C004              PUSH    AR4
0075 C005              PUSH    AR5
0077 C006              PUSH    AR6
0079 C007              PUSH    AR7
007B AC00        R     MOV     R4,dig_T2
007D AD00        R     MOV     R5,dig_T2+01H
007F EC                MOV     A,R4
0080 120000      E     LCALL   ?C?FCASTI
0083 D003              POP     AR3
0085 D002              POP     AR2
0087 D001              POP     AR1
0089 D000              POP     AR0
008B 120000      E     LCALL   ?C?FPMUL
008E 120000      E     LCALL   ?C?CASTF
0091 8F00        R     MOV     var1+03H,R7
0093 8E00        R     MOV     var1+02H,R6
0095 8D00        R     MOV     var1+01H,R5
0097 8C00        R     MOV     var1,R4
                                           ; SOURCE LINE # 155
0099 AF00        R     MOV     R7,adc_T+03H
009B AE00        R     MOV     R6,adc_T+02H
009D AD00        R     MOV     R5,adc_T+01H
009F AC00        R     MOV     R4,adc_T
00A1 EC                MOV     A,R4
00A2 120000      E     LCALL   ?C?FCASTL
00A5 E4                CLR     A
00A6 FB                MOV     R3,A
00A7 FA                MOV     R2,A
00A8 F9                MOV     R1,A
00A9 7848              MOV     R0,#048H
00AB 120000      E     LCALL   ?C?FPDIV
00AE C004              PUSH    AR4
00B0 C005              PUSH    AR5
00B2 C006              PUSH    AR6
00B4 C007              PUSH    AR7
00B6 AC00        R     MOV     R4,dig_T1
00B8 AD00        R     MOV     R5,dig_T1+01H
00BA E4                CLR     A
00BB 120000      E     LCALL   ?C?FCASTI
00BE E4                CLR     A
00BF FB                MOV     R3,A
00C0 FA                MOV     R2,A
00C1 F9                MOV     R1,A
00C2 7846              MOV     R0,#046H
00C4 120000      E     LCALL   ?C?FPDIV
00C7 A804              MOV     R0,AR4
00C9 A905              MOV     R1,AR5
00CB AA06              MOV     R2,AR6
00CD AB07              MOV     R3,AR7
00CF D007              POP     AR7
00D1 D006              POP     AR6
C51 COMPILER V9.60.0.0   BME280                                                            03/10/2022 00:19:06 PAGE 13  

00D3 D005              POP     AR5
00D5 D004              POP     AR4
00D7 120000      E     LCALL   ?C?FPSUB
00DA C004              PUSH    AR4
00DC C005              PUSH    AR5
00DE C006              PUSH    AR6
00E0 C007              PUSH    AR7
00E2 AF00        R     MOV     R7,adc_T+03H
00E4 AE00        R     MOV     R6,adc_T+02H
00E6 AD00        R     MOV     R5,adc_T+01H
00E8 AC00        R     MOV     R4,adc_T
00EA EC                MOV     A,R4
00EB 120000      E     LCALL   ?C?FCASTL
00EE E4                CLR     A
00EF FB                MOV     R3,A
00F0 FA                MOV     R2,A
00F1 F9                MOV     R1,A
00F2 7848              MOV     R0,#048H
00F4 120000      E     LCALL   ?C?FPDIV
00F7 C004              PUSH    AR4
00F9 C005              PUSH    AR5
00FB C006              PUSH    AR6
00FD C007              PUSH    AR7
00FF AC00        R     MOV     R4,dig_T1
0101 AD00        R     MOV     R5,dig_T1+01H
0103 E4                CLR     A
0104 120000      E     LCALL   ?C?FCASTI
0107 E4                CLR     A
0108 FB                MOV     R3,A
0109 FA                MOV     R2,A
010A F9                MOV     R1,A
010B 7846              MOV     R0,#046H
010D 120000      E     LCALL   ?C?FPDIV
0110 A804              MOV     R0,AR4
0112 A905              MOV     R1,AR5
0114 AA06              MOV     R2,AR6
0116 AB07              MOV     R3,AR7
0118 D007              POP     AR7
011A D006              POP     AR6
011C D005              POP     AR5
011E D004              POP     AR4
0120 120000      E     LCALL   ?C?FPSUB
0123 D003              POP     AR3
0125 D002              POP     AR2
0127 D001              POP     AR1
0129 D000              POP     AR0
012B 120000      E     LCALL   ?C?FPMUL
012E C004              PUSH    AR4
0130 C005              PUSH    AR5
0132 C006              PUSH    AR6
0134 C007              PUSH    AR7
0136 AC00        R     MOV     R4,dig_T3
0138 AD00        R     MOV     R5,dig_T3+01H
013A EC                MOV     A,R4
013B 120000      E     LCALL   ?C?FCASTI
013E D003              POP     AR3
0140 D002              POP     AR2
0142 D001              POP     AR1
0144 D000              POP     AR0
0146 120000      E     LCALL   ?C?FPMUL
0149 120000      E     LCALL   ?C?CASTF
014C 8F00        R     MOV     var2+03H,R7
C51 COMPILER V9.60.0.0   BME280                                                            03/10/2022 00:19:06 PAGE 14  

014E 8E00        R     MOV     var2+02H,R6
0150 8D00        R     MOV     var2+01H,R5
0152 8C00        R     MOV     var2,R4
                                           ; SOURCE LINE # 158
0154 E500        R     MOV     A,var1+03H
0156 2500        R     ADD     A,var2+03H
0158 FF                MOV     R7,A
0159 E500        R     MOV     A,var1+02H
015B 3500        R     ADDC    A,var2+02H
015D FE                MOV     R6,A
015E E500        R     MOV     A,var1+01H
0160 3500        R     ADDC    A,var2+01H
0162 FD                MOV     R5,A
0163 E500        R     MOV     A,var1
0165 3500        R     ADDC    A,var2
0167 8F00        R     MOV     t_fine+03H,R7
0169 8E00        R     MOV     t_fine+02H,R6
016B 8D00        R     MOV     t_fine+01H,R5
016D F500        R     MOV     t_fine,A
                                           ; SOURCE LINE # 161
016F E4                CLR     A
0170 7F64              MOV     R7,#064H
0172 FE                MOV     R6,A
0173 FD                MOV     R5,A
0174 FC                MOV     R4,A
0175 AB00        R     MOV     R3,t_fine+03H
0177 AA00        R     MOV     R2,t_fine+02H
0179 A900        R     MOV     R1,t_fine+01H
017B A800        R     MOV     R0,t_fine
017D 120000      E     LCALL   ?C?LMUL
0180 EC                MOV     A,R4
0181 120000      E     LCALL   ?C?FCASTL
0184 E4                CLR     A
0185 FB                MOV     R3,A
0186 FA                MOV     R2,A
0187 79A0              MOV     R1,#0A0H
0189 7845              MOV     R0,#045H
018B 120000      E     LCALL   ?C?FPDIV
018E 120000      E     LCALL   ?C?CASTF
0191 8F00        R     MOV     temperature+03H,R7
0193 8E00        R     MOV     temperature+02H,R6
0195 8D00        R     MOV     temperature+01H,R5
0197 8C00        R     MOV     temperature,R4
                                           ; SOURCE LINE # 165
0199 AF00        R     MOV     R7,t_fine+03H
019B AE00        R     MOV     R6,t_fine+02H
019D AD00        R     MOV     R5,t_fine+01H
019F AC00        R     MOV     R4,t_fine
01A1 EC                MOV     A,R4
01A2 120000      E     LCALL   ?C?FCASTL
01A5 E4                CLR     A
01A6 FB                MOV     R3,A
01A7 FA                MOV     R2,A
01A8 F9                MOV     R1,A
01A9 7840              MOV     R0,#040H
01AB 120000      E     LCALL   ?C?FPDIV
01AE E4                CLR     A
01AF FB                MOV     R3,A
01B0 FA                MOV     R2,A
01B1 797A              MOV     R1,#07AH
01B3 78C7              MOV     R0,#0C7H
01B5 120000      E     LCALL   ?C?FPADD
C51 COMPILER V9.60.0.0   BME280                                                            03/10/2022 00:19:06 PAGE 15  

01B8 120000      E     LCALL   ?C?CASTF
01BB 8F00        R     MOV     var1+03H,R7
01BD 8E00        R     MOV     var1+02H,R6
01BF 8D00        R     MOV     var1+01H,R5
01C1 8C00        R     MOV     var1,R4
                                           ; SOURCE LINE # 168
01C3 A804              MOV     R0,AR4
01C5 A905              MOV     R1,AR5
01C7 AA06              MOV     R2,AR6
01C9 AB07              MOV     R3,AR7
01CB 120000      E     LCALL   ?C?LMUL
01CE EC                MOV     A,R4
01CF 120000      E     LCALL   ?C?FCASTL
01D2 C004              PUSH    AR4
01D4 C005              PUSH    AR5
01D6 C006              PUSH    AR6
01D8 C007              PUSH    AR7
01DA AC00        R     MOV     R4,dig_P6
01DC AD00        R     MOV     R5,dig_P6+01H
01DE EC                MOV     A,R4
01DF 120000      E     LCALL   ?C?FCASTI
01E2 D003              POP     AR3
01E4 D002              POP     AR2
01E6 D001              POP     AR1
01E8 D000              POP     AR0
01EA 120000      E     LCALL   ?C?FPMUL
01ED E4                CLR     A
01EE FB                MOV     R3,A
01EF FA                MOV     R2,A
01F0 F9                MOV     R1,A
01F1 7847              MOV     R0,#047H
01F3 120000      E     LCALL   ?C?FPDIV
01F6 120000      E     LCALL   ?C?CASTF
01F9 8F00        R     MOV     var2+03H,R7
01FB 8E00        R     MOV     var2+02H,R6
01FD 8D00        R     MOV     var2+01H,R5
01FF 8C00        R     MOV     var2,R4
                                           ; SOURCE LINE # 171
0201 AC00        R     MOV     R4,dig_P5
0203 AD00        R     MOV     R5,dig_P5+01H
0205 EC                MOV     A,R4
0206 120000      E     LCALL   ?C?FCASTI
0209 C004              PUSH    AR4
020B C005              PUSH    AR5
020D C006              PUSH    AR6
020F C007              PUSH    AR7
0211 AF00        R     MOV     R7,var1+03H
0213 AE00        R     MOV     R6,var1+02H
0215 AD00        R     MOV     R5,var1+01H
0217 AC00        R     MOV     R4,var1
0219 EC                MOV     A,R4
021A 120000      E     LCALL   ?C?FCASTL
021D D003              POP     AR3
021F D002              POP     AR2
0221 D001              POP     AR1
0223 D000              POP     AR0
0225 120000      E     LCALL   ?C?FPMUL
0228 E4                CLR     A
0229 FB                MOV     R3,A
022A FA                MOV     R2,A
022B F9                MOV     R1,A
022C 7840              MOV     R0,#040H
C51 COMPILER V9.60.0.0   BME280                                                            03/10/2022 00:19:06 PAGE 16  

022E 120000      E     LCALL   ?C?FPMUL
0231 C004              PUSH    AR4
0233 C005              PUSH    AR5
0235 C006              PUSH    AR6
0237 C007              PUSH    AR7
0239 AF00        R     MOV     R7,var2+03H
023B AE00        R     MOV     R6,var2+02H
023D AD00        R     MOV     R5,var2+01H
023F AC00        R     MOV     R4,var2
0241 EC                MOV     A,R4
0242 120000      E     LCALL   ?C?FCASTL
0245 D003              POP     AR3
0247 D002              POP     AR2
0249 D001              POP     AR1
024B D000              POP     AR0
024D 120000      E     LCALL   ?C?FPADD
0250 120000      E     LCALL   ?C?CASTF
0253 8F00        R     MOV     var2+03H,R7
0255 8E00        R     MOV     var2+02H,R6
0257 8D00        R     MOV     var2+01H,R5
0259 8C00        R     MOV     var2,R4
                                           ; SOURCE LINE # 174
025B AC00        R     MOV     R4,dig_P4
025D AD00        R     MOV     R5,dig_P4+01H
025F EC                MOV     A,R4
0260 120000      E     LCALL   ?C?FCASTI
0263 E4                CLR     A
0264 FB                MOV     R3,A
0265 FA                MOV     R2,A
0266 7980              MOV     R1,#080H
0268 7847              MOV     R0,#047H
026A 120000      E     LCALL   ?C?FPMUL
026D C004              PUSH    AR4
026F C005              PUSH    AR5
0271 C006              PUSH    AR6
0273 C007              PUSH    AR7
0275 AF00        R     MOV     R7,var2+03H
0277 AE00        R     MOV     R6,var2+02H
0279 AD00        R     MOV     R5,var2+01H
027B AC00        R     MOV     R4,var2
027D EC                MOV     A,R4
027E 120000      E     LCALL   ?C?FCASTL
0281 E4                CLR     A
0282 FB                MOV     R3,A
0283 FA                MOV     R2,A
0284 7980              MOV     R1,#080H
0286 7840              MOV     R0,#040H
0288 120000      E     LCALL   ?C?FPDIV
028B D003              POP     AR3
028D D002              POP     AR2
028F D001              POP     AR1
0291 D000              POP     AR0
0293 120000      E     LCALL   ?C?FPADD
0296 120000      E     LCALL   ?C?CASTF
0299 8F00        R     MOV     var2+03H,R7
029B 8E00        R     MOV     var2+02H,R6
029D 8D00        R     MOV     var2+01H,R5
029F 8C00        R     MOV     var2,R4
                                           ; SOURCE LINE # 177
02A1 AC00        R     MOV     R4,dig_P3
02A3 AD00        R     MOV     R5,dig_P3+01H
02A5 EC                MOV     A,R4
C51 COMPILER V9.60.0.0   BME280                                                            03/10/2022 00:19:06 PAGE 17  

02A6 120000      E     LCALL   ?C?FCASTI
02A9 C004              PUSH    AR4
02AB C005              PUSH    AR5
02AD C006              PUSH    AR6
02AF C007              PUSH    AR7
02B1 AF00        R     MOV     R7,var1+03H
02B3 AE00        R     MOV     R6,var1+02H
02B5 AD00        R     MOV     R5,var1+01H
02B7 AC00        R     MOV     R4,var1
02B9 EC                MOV     A,R4
02BA 120000      E     LCALL   ?C?FCASTL
02BD D003              POP     AR3
02BF D002              POP     AR2
02C1 D001              POP     AR1
02C3 D000              POP     AR0
02C5 120000      E     LCALL   ?C?FPMUL
02C8 C004              PUSH    AR4
02CA C005              PUSH    AR5
02CC C006              PUSH    AR6
02CE C007              PUSH    AR7
02D0 AF00        R     MOV     R7,var1+03H
02D2 AE00        R     MOV     R6,var1+02H
02D4 AD00        R     MOV     R5,var1+01H
02D6 AC00        R     MOV     R4,var1
02D8 EC                MOV     A,R4
02D9 120000      E     LCALL   ?C?FCASTL
02DC D003              POP     AR3
02DE D002              POP     AR2
02E0 D001              POP     AR1
02E2 D000              POP     AR0
02E4 120000      E     LCALL   ?C?FPMUL
02E7 E4                CLR     A
02E8 FB                MOV     R3,A
02E9 FA                MOV     R2,A
02EA F9                MOV     R1,A
02EB 7849              MOV     R0,#049H
02ED 120000      E     LCALL   ?C?FPDIV
02F0 C004              PUSH    AR4
02F2 C005              PUSH    AR5
02F4 C006              PUSH    AR6
02F6 C007              PUSH    AR7
02F8 AC00        R     MOV     R4,dig_P2
02FA AD00        R     MOV     R5,dig_P2+01H
02FC EC                MOV     A,R4
02FD 120000      E     LCALL   ?C?FCASTI
0300 C004              PUSH    AR4
0302 C005              PUSH    AR5
0304 C006              PUSH    AR6
0306 C007              PUSH    AR7
0308 AF00        R     MOV     R7,var1+03H
030A AE00        R     MOV     R6,var1+02H
030C AD00        R     MOV     R5,var1+01H
030E AC00        R     MOV     R4,var1
0310 EC                MOV     A,R4
0311 120000      E     LCALL   ?C?FCASTL
0314 D003              POP     AR3
0316 D002              POP     AR2
0318 D001              POP     AR1
031A D000              POP     AR0
031C 120000      E     LCALL   ?C?FPMUL
031F D003              POP     AR3
0321 D002              POP     AR2
C51 COMPILER V9.60.0.0   BME280                                                            03/10/2022 00:19:06 PAGE 18  

0323 D001              POP     AR1
0325 D000              POP     AR0
0327 120000      E     LCALL   ?C?FPADD
032A E4                CLR     A
032B FB                MOV     R3,A
032C FA                MOV     R2,A
032D F9                MOV     R1,A
032E 7849              MOV     R0,#049H
0330 120000      E     LCALL   ?C?FPDIV
0333 120000      E     LCALL   ?C?CASTF
0336 8F00        R     MOV     var1+03H,R7
0338 8E00        R     MOV     var1+02H,R6
033A 8D00        R     MOV     var1+01H,R5
033C 8C00        R     MOV     var1,R4
                                           ; SOURCE LINE # 180
033E EC                MOV     A,R4
033F 120000      E     LCALL   ?C?FCASTL
0342 E4                CLR     A
0343 FB                MOV     R3,A
0344 FA                MOV     R2,A
0345 F9                MOV     R1,A
0346 7847              MOV     R0,#047H
0348 120000      E     LCALL   ?C?FPDIV
034B E4                CLR     A
034C FB                MOV     R3,A
034D FA                MOV     R2,A
034E 7980              MOV     R1,#080H
0350 783F              MOV     R0,#03FH
0352 120000      E     LCALL   ?C?FPADD
0355 C004              PUSH    AR4
0357 C005              PUSH    AR5
0359 C006              PUSH    AR6
035B C007              PUSH    AR7
035D AC00        R     MOV     R4,dig_P1
035F AD00        R     MOV     R5,dig_P1+01H
0361 E4                CLR     A
0362 120000      E     LCALL   ?C?FCASTI
0365 D003              POP     AR3
0367 D002              POP     AR2
0369 D001              POP     AR1
036B D000              POP     AR0
036D 120000      E     LCALL   ?C?FPMUL
0370 120000      E     LCALL   ?C?CASTF
0373 8F00        R     MOV     var1+03H,R7
0375 8E00        R     MOV     var1+02H,R6
0377 8D00        R     MOV     var1+01H,R5
0379 8C00        R     MOV     var1,R4
                                           ; SOURCE LINE # 183
037B AF00        R     MOV     R7,adc_P+03H
037D AE00        R     MOV     R6,adc_P+02H
037F AD00        R     MOV     R5,adc_P+01H
0381 AC00        R     MOV     R4,adc_P
0383 EC                MOV     A,R4
0384 120000      E     LCALL   ?C?FCASTL
0387 A804              MOV     R0,AR4
0389 A905              MOV     R1,AR5
038B AA06              MOV     R2,AR6
038D AB07              MOV     R3,AR7
038F E4                CLR     A
0390 FF                MOV     R7,A
0391 FE                MOV     R6,A
0392 7D80              MOV     R5,#080H
C51 COMPILER V9.60.0.0   BME280                                                            03/10/2022 00:19:06 PAGE 19  

0394 7C49              MOV     R4,#049H
0396 120000      E     LCALL   ?C?FPSUB
0399 120000      E     LCALL   ?C?CASTF
039C 8F00        R     MOV     pressure+03H,R7
039E 8E00        R     MOV     pressure+02H,R6
03A0 8D00        R     MOV     pressure+01H,R5
03A2 8C00        R     MOV     pressure,R4
                                           ; SOURCE LINE # 186
03A4 AF00        R     MOV     R7,var2+03H
03A6 AE00        R     MOV     R6,var2+02H
03A8 AD00        R     MOV     R5,var2+01H
03AA AC00        R     MOV     R4,var2
03AC EC                MOV     A,R4
03AD 120000      E     LCALL   ?C?FCASTL
03B0 E4                CLR     A
03B1 FB                MOV     R3,A
03B2 FA                MOV     R2,A
03B3 7980              MOV     R1,#080H
03B5 7845              MOV     R0,#045H
03B7 120000      E     LCALL   ?C?FPDIV
03BA C004              PUSH    AR4
03BC C005              PUSH    AR5
03BE C006              PUSH    AR6
03C0 C007              PUSH    AR7
03C2 AF00        R     MOV     R7,pressure+03H
03C4 AE00        R     MOV     R6,pressure+02H
03C6 AD00        R     MOV     R5,pressure+01H
03C8 AC00        R     MOV     R4,pressure
03CA EC                MOV     A,R4
03CB 120000      E     LCALL   ?C?FCASTL
03CE D003              POP     AR3
03D0 D002              POP     AR2
03D2 D001              POP     AR1
03D4 D000              POP     AR0
03D6 120000      E     LCALL   ?C?FPSUB
03D9 7B00              MOV     R3,#00H
03DB 7A50              MOV     R2,#050H
03DD 79C3              MOV     R1,#0C3H
03DF 7845              MOV     R0,#045H
03E1 120000      E     LCALL   ?C?FPMUL
03E4 C004              PUSH    AR4
03E6 C005              PUSH    AR5
03E8 C006              PUSH    AR6
03EA C007              PUSH    AR7
03EC AF00        R     MOV     R7,var1+03H
03EE AE00        R     MOV     R6,var1+02H
03F0 AD00        R     MOV     R5,var1+01H
03F2 AC00        R     MOV     R4,var1
03F4 EC                MOV     A,R4
03F5 120000      E     LCALL   ?C?FCASTL
03F8 A804              MOV     R0,AR4
03FA A905              MOV     R1,AR5
03FC AA06              MOV     R2,AR6
03FE AB07              MOV     R3,AR7
0400 D007              POP     AR7
0402 D006              POP     AR6
0404 D005              POP     AR5
0406 D004              POP     AR4
0408 120000      E     LCALL   ?C?FPDIV
040B 120000      E     LCALL   ?C?CASTF
040E 8F00        R     MOV     pressure+03H,R7
0410 8E00        R     MOV     pressure+02H,R6
C51 COMPILER V9.60.0.0   BME280                                                            03/10/2022 00:19:06 PAGE 20  

0412 8D00        R     MOV     pressure+01H,R5
0414 8C00        R     MOV     pressure,R4
                                           ; SOURCE LINE # 190
0416 C3                CLR     C
0417 74CD              MOV     A,#0CDH
0419 9500        R     SUBB    A,pressure+03H
041B FF                MOV     R7,A
041C 748B              MOV     A,#08BH
041E 9500        R     SUBB    A,pressure+02H
0420 FE                MOV     R6,A
0421 7401              MOV     A,#01H
0423 9500        R     SUBB    A,pressure+01H
0425 FD                MOV     R5,A
0426 E4                CLR     A
0427 9500        R     SUBB    A,pressure
0429 FC                MOV     R4,A
042A E4                CLR     A
042B 7B09              MOV     R3,#09H
042D FA                MOV     R2,A
042E F9                MOV     R1,A
042F F8                MOV     R0,A
0430 120000      E     LCALL   ?C?LMUL
0433 8F00        R     MOV     height+03H,R7
0435 8E00        R     MOV     height+02H,R6
0437 8D00        R     MOV     height+01H,R5
0439 8C00        R     MOV     height,R4
                                           ; SOURCE LINE # 193
043B AF00        R     MOV     R7,t_fine+03H
043D AE00        R     MOV     R6,t_fine+02H
043F AD00        R     MOV     R5,t_fine+01H
0441 AC00        R     MOV     R4,t_fine
0443 EC                MOV     A,R4
0444 120000      E     LCALL   ?C?FCASTL
0447 E4                CLR     A
0448 FB                MOV     R3,A
0449 FA                MOV     R2,A
044A 7996              MOV     R1,#096H
044C 78C7              MOV     R0,#0C7H
044E 120000      E     LCALL   ?C?FPADD
0451 120000      E     LCALL   ?C?CASTF
0454 8F00        R     MOV     humidity+03H,R7
0456 8E00        R     MOV     humidity+02H,R6
0458 8D00        R     MOV     humidity+01H,R5
045A 8C00        R     MOV     humidity,R4
                                           ; SOURCE LINE # 196
045C AC00        R     MOV     R4,dig_H3
045E E4                CLR     A
045F 120000      E     LCALL   ?C?FCASTC
0462 E4                CLR     A
0463 FB                MOV     R3,A
0464 FA                MOV     R2,A
0465 7980              MOV     R1,#080H
0467 784C              MOV     R0,#04CH
0469 120000      E     LCALL   ?C?FPDIV
046C C004              PUSH    AR4
046E C005              PUSH    AR5
0470 C006              PUSH    AR6
0472 C007              PUSH    AR7
0474 AF00        R     MOV     R7,humidity+03H
0476 AE00        R     MOV     R6,humidity+02H
0478 AD00        R     MOV     R5,humidity+01H
047A AC00        R     MOV     R4,humidity
C51 COMPILER V9.60.0.0   BME280                                                            03/10/2022 00:19:06 PAGE 21  

047C EC                MOV     A,R4
047D 120000      E     LCALL   ?C?FCASTL
0480 D003              POP     AR3
0482 D002              POP     AR2
0484 D001              POP     AR1
0486 D000              POP     AR0
0488 120000      E     LCALL   ?C?FPMUL
048B E4                CLR     A
048C FB                MOV     R3,A
048D FA                MOV     R2,A
048E 7980              MOV     R1,#080H
0490 783F              MOV     R0,#03FH
0492 120000      E     LCALL   ?C?FPADD
0495 C004              PUSH    AR4
0497 C005              PUSH    AR5
0499 C006              PUSH    AR6
049B C007              PUSH    AR7
049D AC00        R     MOV     R4,dig_H6
049F AD00        R     MOV     R5,dig_H6+01H
04A1 EC                MOV     A,R4
04A2 120000      E     LCALL   ?C?FCASTI
04A5 E4                CLR     A
04A6 FB                MOV     R3,A
04A7 FA                MOV     R2,A
04A8 7980              MOV     R1,#080H
04AA 784C              MOV     R0,#04CH
04AC 120000      E     LCALL   ?C?FPDIV
04AF C004              PUSH    AR4
04B1 C005              PUSH    AR5
04B3 C006              PUSH    AR6
04B5 C007              PUSH    AR7
04B7 AF00        R     MOV     R7,humidity+03H
04B9 AE00        R     MOV     R6,humidity+02H
04BB AD00        R     MOV     R5,humidity+01H
04BD AC00        R     MOV     R4,humidity
04BF EC                MOV     A,R4
04C0 120000      E     LCALL   ?C?FCASTL
04C3 D003              POP     AR3
04C5 D002              POP     AR2
04C7 D001              POP     AR1
04C9 D000              POP     AR0
04CB 120000      E     LCALL   ?C?FPMUL
04CE D003              POP     AR3
04D0 D002              POP     AR2
04D2 D001              POP     AR1
04D4 D000              POP     AR0
04D6 120000      E     LCALL   ?C?FPMUL
04D9 E4                CLR     A
04DA FB                MOV     R3,A
04DB FA                MOV     R2,A
04DC 7980              MOV     R1,#080H
04DE 783F              MOV     R0,#03FH
04E0 120000      E     LCALL   ?C?FPADD
04E3 C004              PUSH    AR4
04E5 C005              PUSH    AR5
04E7 C006              PUSH    AR6
04E9 C007              PUSH    AR7
04EB AC00        R     MOV     R4,dig_H2
04ED AD00        R     MOV     R5,dig_H2+01H
04EF EC                MOV     A,R4
04F0 120000      E     LCALL   ?C?FCASTI
04F3 E4                CLR     A
C51 COMPILER V9.60.0.0   BME280                                                            03/10/2022 00:19:06 PAGE 22  

04F4 FB                MOV     R3,A
04F5 FA                MOV     R2,A
04F6 7980              MOV     R1,#080H
04F8 7847              MOV     R0,#047H
04FA 120000      E     LCALL   ?C?FPDIV
04FD D003              POP     AR3
04FF D002              POP     AR2
0501 D001              POP     AR1
0503 D000              POP     AR0
0505 120000      E     LCALL   ?C?FPMUL
0508 C004              PUSH    AR4
050A C005              PUSH    AR5
050C C006              PUSH    AR6
050E C007              PUSH    AR7
0510 AC00        R     MOV     R4,dig_H5
0512 AD00        R     MOV     R5,dig_H5+01H
0514 EC                MOV     A,R4
0515 120000      E     LCALL   ?C?FCASTI
0518 E4                CLR     A
0519 FB                MOV     R3,A
051A FA                MOV     R2,A
051B 7980              MOV     R1,#080H
051D 7846              MOV     R0,#046H
051F 120000      E     LCALL   ?C?FPDIV
0522 C004              PUSH    AR4
0524 C005              PUSH    AR5
0526 C006              PUSH    AR6
0528 C007              PUSH    AR7
052A AF00        R     MOV     R7,humidity+03H
052C AE00        R     MOV     R6,humidity+02H
052E AD00        R     MOV     R5,humidity+01H
0530 AC00        R     MOV     R4,humidity
0532 EC                MOV     A,R4
0533 120000      E     LCALL   ?C?FCASTL
0536 D003              POP     AR3
0538 D002              POP     AR2
053A D001              POP     AR1
053C D000              POP     AR0
053E 120000      E     LCALL   ?C?FPMUL
0541 C004              PUSH    AR4
0543 C005              PUSH    AR5
0545 C006              PUSH    AR6
0547 C007              PUSH    AR7
0549 AC00        R     MOV     R4,dig_H4
054B AD00        R     MOV     R5,dig_H4+01H
054D EC                MOV     A,R4
054E 120000      E     LCALL   ?C?FCASTI
0551 E4                CLR     A
0552 FB                MOV     R3,A
0553 FA                MOV     R2,A
0554 7980              MOV     R1,#080H
0556 7842              MOV     R0,#042H
0558 120000      E     LCALL   ?C?FPMUL
055B D003              POP     AR3
055D D002              POP     AR2
055F D001              POP     AR1
0561 D000              POP     AR0
0563 120000      E     LCALL   ?C?FPADD
0566 C004              PUSH    AR4
0568 C005              PUSH    AR5
056A C006              PUSH    AR6
056C C007              PUSH    AR7
C51 COMPILER V9.60.0.0   BME280                                                            03/10/2022 00:19:06 PAGE 23  

056E AF00        R     MOV     R7,adc_H+03H
0570 AE00        R     MOV     R6,adc_H+02H
0572 AD00        R     MOV     R5,adc_H+01H
0574 AC00        R     MOV     R4,adc_H
0576 EC                MOV     A,R4
0577 120000      E     LCALL   ?C?FCASTL
057A D003              POP     AR3
057C D002              POP     AR2
057E D001              POP     AR1
0580 D000              POP     AR0
0582 120000      E     LCALL   ?C?FPSUB
0585 D003              POP     AR3
0587 D002              POP     AR2
0589 D001              POP     AR1
058B D000              POP     AR0
058D 120000      E     LCALL   ?C?FPMUL
0590 120000      E     LCALL   ?C?CASTF
0593 8F00        R     MOV     humidity+03H,R7
0595 8E00        R     MOV     humidity+02H,R6
0597 8D00        R     MOV     humidity+01H,R5
0599 8C00        R     MOV     humidity,R4
                                           ; SOURCE LINE # 197
059B AC00        R     MOV     R4,dig_H1
059D E4                CLR     A
059E 120000      E     LCALL   ?C?FCASTC
05A1 C004              PUSH    AR4
05A3 C005              PUSH    AR5
05A5 C006              PUSH    AR6
05A7 C007              PUSH    AR7
05A9 AF00        R     MOV     R7,humidity+03H
05AB AE00        R     MOV     R6,humidity+02H
05AD AD00        R     MOV     R5,humidity+01H
05AF AC00        R     MOV     R4,humidity
05B1 EC                MOV     A,R4
05B2 120000      E     LCALL   ?C?FCASTL
05B5 D003              POP     AR3
05B7 D002              POP     AR2
05B9 D001              POP     AR1
05BB D000              POP     AR0
05BD 120000      E     LCALL   ?C?FPMUL
05C0 E4                CLR     A
05C1 FB                MOV     R3,A
05C2 FA                MOV     R2,A
05C3 F9                MOV     R1,A
05C4 7849              MOV     R0,#049H
05C6 120000      E     LCALL   ?C?FPDIV
05C9 A804              MOV     R0,AR4
05CB A905              MOV     R1,AR5
05CD AA06              MOV     R2,AR6
05CF AB07              MOV     R3,AR7
05D1 E4                CLR     A
05D2 FF                MOV     R7,A
05D3 FE                MOV     R6,A
05D4 7D80              MOV     R5,#080H
05D6 7C3F              MOV     R4,#03FH
05D8 120000      E     LCALL   ?C?FPSUB
05DB C004              PUSH    AR4
05DD C005              PUSH    AR5
05DF C006              PUSH    AR6
05E1 C007              PUSH    AR7
05E3 AF00        R     MOV     R7,humidity+03H
05E5 AE00        R     MOV     R6,humidity+02H
C51 COMPILER V9.60.0.0   BME280                                                            03/10/2022 00:19:06 PAGE 24  

05E7 AD00        R     MOV     R5,humidity+01H
05E9 AC00        R     MOV     R4,humidity
05EB EC                MOV     A,R4
05EC 120000      E     LCALL   ?C?FCASTL
05EF D003              POP     AR3
05F1 D002              POP     AR2
05F3 D001              POP     AR1
05F5 D000              POP     AR0
05F7 120000      E     LCALL   ?C?FPMUL
05FA 120000      E     LCALL   ?C?CASTF
05FD 8F00        R     MOV     humidity+03H,R7
05FF 8E00        R     MOV     humidity+02H,R6
0601 8D00        R     MOV     humidity+01H,R5
0603 8C00        R     MOV     humidity,R4
                                           ; SOURCE LINE # 199
0605 E4                CLR     A
0606         ?C0009:
0606 FF                MOV     R7,A
0607 FE                MOV     R6,A
0608 FD                MOV     R5,A
0609 FC                MOV     R4,A
                                           ; SOURCE LINE # 200
060A         ?C0008:
060A 22                RET     
             ; FUNCTION bmp280Convert (END)

C51 COMPILER V9.60.0.0   BME280                                                            03/10/2022 00:19:06 PAGE 25  

NAME                                    CLASS   MSPACE  TYPE    OFFSET  SIZE
====                                    =====   ======  ====    ======  ====


pressure . . . . . . . . . . . . . . .  PUBLIC   DATA   LONG     0000H  4
uint16_t . . . . . . . . . . . . . . .  TYPEDEF  -----  U_INT    -----  2
P0 . . . . . . . . . . . . . . . . . .  SFR      DATA   U_CHAR   0080H  1
P1 . . . . . . . . . . . . . . . . . .  SFR      DATA   U_CHAR   0090H  1
P2 . . . . . . . . . . . . . . . . . .  SFR      DATA   U_CHAR   00A0H  1
P3 . . . . . . . . . . . . . . . . . .  SFR      DATA   U_CHAR   00B0H  1
T0 . . . . . . . . . . . . . . . . . .  ABSBIT   -----  BIT      00B4H  1
AC . . . . . . . . . . . . . . . . . .  ABSBIT   -----  BIT      00D6H  1
T1 . . . . . . . . . . . . . . . . . .  ABSBIT   -----  BIT      00B5H  1
T2 . . . . . . . . . . . . . . . . . .  ABSBIT   -----  BIT      0090H  1
EA . . . . . . . . . . . . . . . . . .  ABSBIT   -----  BIT      00AFH  1
int32_t. . . . . . . . . . . . . . . .  TYPEDEF  -----  LONG     -----  4
int16_t. . . . . . . . . . . . . . . .  TYPEDEF  -----  INT      -----  2
IE . . . . . . . . . . . . . . . . . .  SFR      DATA   U_CHAR   00A8H  1
dig_H1 . . . . . . . . . . . . . . . .  PUBLIC   DATA   U_CHAR   0004H  1
dig_H2 . . . . . . . . . . . . . . . .  PUBLIC   DATA   INT      0005H  2
dig_H3 . . . . . . . . . . . . . . . .  PUBLIC   DATA   U_CHAR   0007H  1
dig_H4 . . . . . . . . . . . . . . . .  PUBLIC   DATA   INT      0008H  2
dig_H5 . . . . . . . . . . . . . . . .  PUBLIC   DATA   INT      000AH  2
dig_H6 . . . . . . . . . . . . . . . .  PUBLIC   DATA   INT      000CH  2
EXF2 . . . . . . . . . . . . . . . . .  ABSBIT   -----  BIT      00CEH  1
RD . . . . . . . . . . . . . . . . . .  ABSBIT   -----  BIT      00B7H  1
dig_P1 . . . . . . . . . . . . . . . .  PUBLIC   DATA   U_INT    000EH  2
dig_P2 . . . . . . . . . . . . . . . .  PUBLIC   DATA   INT      0010H  2
ES . . . . . . . . . . . . . . . . . .  ABSBIT   -----  BIT      00ACH  1
dig_P3 . . . . . . . . . . . . . . . .  PUBLIC   DATA   INT      0012H  2
IP . . . . . . . . . . . . . . . . . .  SFR      DATA   U_CHAR   00B8H  1
dig_P4 . . . . . . . . . . . . . . . .  PUBLIC   DATA   INT      0014H  2
dig_P5 . . . . . . . . . . . . . . . .  PUBLIC   DATA   INT      0016H  2
dig_T1 . . . . . . . . . . . . . . . .  PUBLIC   DATA   U_INT    0018H  2
RI . . . . . . . . . . . . . . . . . .  ABSBIT   -----  BIT      0098H  1
dig_P6 . . . . . . . . . . . . . . . .  PUBLIC   DATA   INT      001AH  2
dig_T2 . . . . . . . . . . . . . . . .  PUBLIC   DATA   INT      001CH  2
INT0 . . . . . . . . . . . . . . . . .  ABSBIT   -----  BIT      00B2H  1
CY . . . . . . . . . . . . . . . . . .  ABSBIT   -----  BIT      00D7H  1
dig_P7 . . . . . . . . . . . . . . . .  PUBLIC   DATA   INT      001EH  2
dig_T3 . . . . . . . . . . . . . . . .  PUBLIC   DATA   INT      0020H  2
TI . . . . . . . . . . . . . . . . . .  ABSBIT   -----  BIT      0099H  1
INT1 . . . . . . . . . . . . . . . . .  ABSBIT   -----  BIT      00B3H  1
dig_P8 . . . . . . . . . . . . . . . .  PUBLIC   DATA   INT      0022H  2
dig_P9 . . . . . . . . . . . . . . . .  PUBLIC   DATA   INT      0024H  2
RCAP2H . . . . . . . . . . . . . . . .  SFR      DATA   U_CHAR   00CBH  1
PS . . . . . . . . . . . . . . . . . .  ABSBIT   -----  BIT      00BCH  1
SP . . . . . . . . . . . . . . . . . .  SFR      DATA   U_CHAR   0081H  1
T2EX . . . . . . . . . . . . . . . . .  ABSBIT   -----  BIT      0091H  1
OV . . . . . . . . . . . . . . . . . .  ABSBIT   -----  BIT      00D2H  1
RCAP2L . . . . . . . . . . . . . . . .  SFR      DATA   U_CHAR   00CAH  1
C_T2 . . . . . . . . . . . . . . . . .  ABSBIT   -----  BIT      00C9H  1
WR . . . . . . . . . . . . . . . . . .  ABSBIT   -----  BIT      00B6H  1
RCLK . . . . . . . . . . . . . . . . .  ABSBIT   -----  BIT      00CDH  1
TCLK . . . . . . . . . . . . . . . . .  ABSBIT   -----  BIT      00CCH  1
SBUF . . . . . . . . . . . . . . . . .  SFR      DATA   U_CHAR   0099H  1
PCON . . . . . . . . . . . . . . . . .  SFR      DATA   U_CHAR   0087H  1
SCON . . . . . . . . . . . . . . . . .  SFR      DATA   U_CHAR   0098H  1
TMOD . . . . . . . . . . . . . . . . .  SFR      DATA   U_CHAR   0089H  1
TCON . . . . . . . . . . . . . . . . .  SFR      DATA   U_CHAR   0088H  1
temperature. . . . . . . . . . . . . .  PUBLIC   DATA   LONG     0026H  4
C51 COMPILER V9.60.0.0   BME280                                                            03/10/2022 00:19:06 PAGE 26  

NAME                                    CLASS   MSPACE  TYPE    OFFSET  SIZE
====                                    =====   ======  ====    ======  ====


IE0. . . . . . . . . . . . . . . . . .  ABSBIT   -----  BIT      0089H  1
IE1. . . . . . . . . . . . . . . . . .  ABSBIT   -----  BIT      008BH  1
B. . . . . . . . . . . . . . . . . . .  SFR      DATA   U_CHAR   00F0H  1
bmp280Convert. . . . . . . . . . . . .  PUBLIC   CODE   PROC     0000H  -----
  adc_T. . . . . . . . . . . . . . . .  AUTO     DATA   LONG     0000H  4
  adc_P. . . . . . . . . . . . . . . .  AUTO     DATA   LONG     0004H  4
  adc_H. . . . . . . . . . . . . . . .  AUTO     DATA   LONG     0008H  4
  var1 . . . . . . . . . . . . . . . .  AUTO     DATA   LONG     000CH  4
  var2 . . . . . . . . . . . . . . . .  AUTO     DATA   LONG     0010H  4
  t_fine . . . . . . . . . . . . . . .  AUTO     DATA   LONG     0014H  4
_Single_Read . . . . . . . . . . . . .  PUBLIC   CODE   PROC     0006H  -----
  ST_Address . . . . . . . . . . . . .  AUTO     DATA   U_CHAR   0000H  1
  REG_data . . . . . . . . . . . . . .  AUTO     DATA   U_CHAR   0001H  1
CP_RL2 . . . . . . . . . . . . . . . .  ABSBIT   -----  BIT      00C8H  1
iic_ack. . . . . . . . . . . . . . . .  EXTERN   CODE   PROC     -----  -----
ACC. . . . . . . . . . . . . . . . . .  SFR      DATA   U_CHAR   00E0H  1
iic_start. . . . . . . . . . . . . . .  EXTERN   CODE   PROC     -----  -----
ET0. . . . . . . . . . . . . . . . . .  ABSBIT   -----  BIT      00A9H  1
ET1. . . . . . . . . . . . . . . . . .  ABSBIT   -----  BIT      00ABH  1
TF0. . . . . . . . . . . . . . . . . .  ABSBIT   -----  BIT      008DH  1
ET2. . . . . . . . . . . . . . . . . .  ABSBIT   -----  BIT      00ADH  1
TF1. . . . . . . . . . . . . . . . . .  ABSBIT   -----  BIT      008FH  1
_Multiple_three_read . . . . . . . . .  PUBLIC   CODE   PROC     0000H  -----
  ST_Address . . . . . . . . . . . . .  AUTO     DATA   U_CHAR   0000H  1
  msb. . . . . . . . . . . . . . . . .  AUTO     DATA   U_CHAR   0001H  1
  lsb. . . . . . . . . . . . . . . . .  AUTO     DATA   U_CHAR   0002H  1
  xlsb . . . . . . . . . . . . . . . .  AUTO     DATA   U_CHAR   0003H  1
  _data. . . . . . . . . . . . . . . .  * REG *  DATA   LONG     0004H  4
TF2. . . . . . . . . . . . . . . . . .  ABSBIT   -----  BIT      00CFH  1
RB8. . . . . . . . . . . . . . . . . .  ABSBIT   -----  BIT      009AH  1
TH0. . . . . . . . . . . . . . . . . .  SFR      DATA   U_CHAR   008CH  1
EX0. . . . . . . . . . . . . . . . . .  ABSBIT   -----  BIT      00A8H  1
IT0. . . . . . . . . . . . . . . . . .  ABSBIT   -----  BIT      0088H  1
TH1. . . . . . . . . . . . . . . . . .  SFR      DATA   U_CHAR   008DH  1
TB8. . . . . . . . . . . . . . . . . .  ABSBIT   -----  BIT      009BH  1
EX1. . . . . . . . . . . . . . . . . .  ABSBIT   -----  BIT      00AAH  1
IT1. . . . . . . . . . . . . . . . . .  ABSBIT   -----  BIT      008AH  1
TH2. . . . . . . . . . . . . . . . . .  SFR      DATA   U_CHAR   00CDH  1
uint8_t. . . . . . . . . . . . . . . .  TYPEDEF  -----  U_CHAR   -----  1
P. . . . . . . . . . . . . . . . . . .  ABSBIT   -----  BIT      00D0H  1
_Multiple_read . . . . . . . . . . . .  PUBLIC   CODE   PROC     0000H  -----
  ST_Address . . . . . . . . . . . . .  AUTO     DATA   U_CHAR   0000H  1
  msb. . . . . . . . . . . . . . . . .  * REG *  DATA   U_CHAR   0007H  1
  lsb. . . . . . . . . . . . . . . . .  AUTO     DATA   U_CHAR   0001H  1
  _data. . . . . . . . . . . . . . . .  * REG *  DATA   INT      0006H  2
SM0. . . . . . . . . . . . . . . . . .  ABSBIT   -----  BIT      009FH  1
TL0. . . . . . . . . . . . . . . . . .  SFR      DATA   U_CHAR   008AH  1
SM1. . . . . . . . . . . . . . . . . .  ABSBIT   -----  BIT      009EH  1
TL1. . . . . . . . . . . . . . . . . .  SFR      DATA   U_CHAR   008BH  1
SM2. . . . . . . . . . . . . . . . . .  ABSBIT   -----  BIT      009DH  1
TL2. . . . . . . . . . . . . . . . . .  SFR      DATA   U_CHAR   00CCH  1
_Single_Write. . . . . . . . . . . . .  PUBLIC   CODE   PROC     0000H  -----
  SlaveAddress . . . . . . . . . . . .  AUTO     DATA   U_CHAR   0000H  1
  REG_Address. . . . . . . . . . . . .  AUTO     DATA   U_CHAR   0001H  1
  REG_data . . . . . . . . . . . . . .  AUTO     DATA   U_CHAR   0002H  1
PT0. . . . . . . . . . . . . . . . . .  ABSBIT   -----  BIT      00B9H  1
PT1. . . . . . . . . . . . . . . . . .  ABSBIT   -----  BIT      00BBH  1
C51 COMPILER V9.60.0.0   BME280                                                            03/10/2022 00:19:06 PAGE 27  

NAME                                    CLASS   MSPACE  TYPE    OFFSET  SIZE
====                                    =====   ======  ====    ======  ====


RS0. . . . . . . . . . . . . . . . . .  ABSBIT   -----  BIT      00D3H  1
PT2. . . . . . . . . . . . . . . . . .  ABSBIT   -----  BIT      00BDH  1
TR0. . . . . . . . . . . . . . . . . .  ABSBIT   -----  BIT      008CH  1
RS1. . . . . . . . . . . . . . . . . .  ABSBIT   -----  BIT      00D4H  1
TR1. . . . . . . . . . . . . . . . . .  ABSBIT   -----  BIT      008EH  1
SDA. . . . . . . . . . . . . . . . . .  ABSBIT   -----  BIT      0090H  1
TR2. . . . . . . . . . . . . . . . . .  ABSBIT   -----  BIT      00CAH  1
PX0. . . . . . . . . . . . . . . . . .  ABSBIT   -----  BIT      00B8H  1
int8_t . . . . . . . . . . . . . . . .  TYPEDEF  -----  CHAR     -----  1
PX1. . . . . . . . . . . . . . . . . .  ABSBIT   -----  BIT      00BAH  1
_iic_send_byte . . . . . . . . . . . .  EXTERN   CODE   PROC     -----  -----
DPH. . . . . . . . . . . . . . . . . .  SFR      DATA   U_CHAR   0083H  1
iic_stop . . . . . . . . . . . . . . .  EXTERN   CODE   PROC     -----  -----
DPL. . . . . . . . . . . . . . . . . .  SFR      DATA   U_CHAR   0082H  1
SCL. . . . . . . . . . . . . . . . . .  ABSBIT   -----  BIT      0091H  1
EXEN2. . . . . . . . . . . . . . . . .  ABSBIT   -----  BIT      00CBH  1
iic_rev. . . . . . . . . . . . . . . .  EXTERN   CODE   PROC     -----  -----
REN. . . . . . . . . . . . . . . . . .  ABSBIT   -----  BIT      009CH  1
Delay200ms . . . . . . . . . . . . . .  EXTERN   CODE   PROC     -----  -----
T2CON. . . . . . . . . . . . . . . . .  SFR      DATA   U_CHAR   00C8H  1
RXD. . . . . . . . . . . . . . . . . .  ABSBIT   -----  BIT      00B0H  1
TXD. . . . . . . . . . . . . . . . . .  ABSBIT   -----  BIT      00B1H  1
Init_BMP280. . . . . . . . . . . . . .  PUBLIC   CODE   PROC     0000H  -----
  temp . . . . . . . . . . . . . . . .  AUTO     DATA   U_INT    0000H  2
humidity . . . . . . . . . . . . . . .  PUBLIC   DATA   LONG     002AH  4
F0 . . . . . . . . . . . . . . . . . .  ABSBIT   -----  BIT      00D5H  1
_Multiple_read_H . . . . . . . . . . .  PUBLIC   CODE   PROC     0000H  -----
  ST_Address . . . . . . . . . . . . .  AUTO     DATA   U_CHAR   0000H  1
  msb. . . . . . . . . . . . . . . . .  AUTO     DATA   U_CHAR   0001H  1
  lsb. . . . . . . . . . . . . . . . .  AUTO     DATA   U_CHAR   0002H  1
  _data. . . . . . . . . . . . . . . .  * REG *  DATA   LONG     0004H  4
PSW. . . . . . . . . . . . . . . . . .  SFR      DATA   U_CHAR   00D0H  1
height . . . . . . . . . . . . . . . .  PUBLIC   DATA   LONG     002EH  4
uint32_t . . . . . . . . . . . . . . .  TYPEDEF  -----  U_LONG   -----  4


MODULE INFORMATION:   STATIC OVERLAYABLE
   CODE SIZE        =   2075    ----
   CONSTANT SIZE    =   ----    ----
   XDATA SIZE       =   ----    ----
   PDATA SIZE       =   ----    ----
   DATA SIZE        =     50      40
   IDATA SIZE       =   ----    ----
   BIT SIZE         =   ----    ----
   EDATA SIZE       =   ----    ----
   HDATA SIZE       =   ----    ----
   XDATA CONST SIZE =   ----    ----
   FAR CONST SIZE   =   ----    ----
END OF MODULE INFORMATION.


C51 COMPILATION COMPLETE.  0 WARNING(S),  0 ERROR(S)
